ARM GAS  C:\Users\sinow\AppData\Local\Temp\cczf4fVe.s 			page 1


   1              		.syntax unified
   2              		.cpu cortex-m3
   3              		.fpu softvfp
   4              		.eabi_attribute 20, 1
   5              		.eabi_attribute 21, 1
   6              		.eabi_attribute 23, 3
   7              		.eabi_attribute 24, 1
   8              		.eabi_attribute 25, 1
   9              		.eabi_attribute 26, 1
  10              		.eabi_attribute 30, 1
  11              		.eabi_attribute 34, 1
  12              		.eabi_attribute 18, 4
  13              		.thumb
  14              		.syntax unified
  15              		.file	"main.c"
  16              		.text
  17              	.Ltext0:
  18              		.cfi_sections	.debug_frame
  19              		.section	.text.CapSense_DisplayState,"ax",%progbits
  20              		.align	2
  21              		.global	CapSense_DisplayState
  22              		.thumb
  23              		.thumb_func
  24              		.type	CapSense_DisplayState, %function
  25              	CapSense_DisplayState:
  26              	.LFB64:
  27              		.file 1 "main.c"
   1:main.c        **** /*
   2:main.c        **** ELC 343 - Microcomputer Lab Final Project
   3:main.c        **** November 19, 2019
   4:main.c        **** Goal: controlling 3 servos and stepper motor to form a simple 
   5:main.c        **** 3-DOF robot arm, using touch sensor and potentiometer inputs
   6:main.c        **** Authors: Jordan Sinoway & Caleb McKinney
   7:main.c        **** */
   8:main.c        **** 
   9:main.c        **** 
  10:main.c        **** #include "project.h"
  11:main.c        **** #include "stdio.h"
  12:main.c        **** #include "string.h"
  13:main.c        **** #include "math.h"
  14:main.c        **** 
  15:main.c        **** uint16 curPos, oldPos;
  16:main.c        **** 
  17:main.c        **** uint16 CapSense_DisplayState(void)
  18:main.c        **** {
  28              		.loc 1 18 0
  29              		.cfi_startproc
  30              		@ args = 0, pretend = 0, frame = 0
  31              		@ frame_needed = 0, uses_anonymous_args = 0
  32 0000 08B5     		push	{r3, lr}
  33              		.cfi_def_cfa_offset 8
  34              		.cfi_offset 3, -8
  35              		.cfi_offset 14, -4
  19:main.c        ****     curPos = CapSense_CSD_GetCentroidPos(CapSense_CSD_LINEARSLIDER0__LS); //find slider position
  36              		.loc 1 19 0
  37 0002 0020     		movs	r0, #0
  38 0004 FFF7FEFF 		bl	CapSense_CSD_GetCentroidPos
ARM GAS  C:\Users\sinow\AppData\Local\Temp\cczf4fVe.s 			page 2


  39              	.LVL0:
  40 0008 014B     		ldr	r3, .L3
  41 000a 1880     		strh	r0, [r3]	@ movhi
  20:main.c        ****     
  21:main.c        ****     /*
  22:main.c        ****     if(curPos == 0xFFFFu) //reset position
  23:main.c        ****     {
  24:main.c        ****         curPos = 0u;
  25:main.c        ****     }
  26:main.c        ****     */
  27:main.c        ****     
  28:main.c        ****     return curPos;
  29:main.c        ****     
  30:main.c        **** }
  42              		.loc 1 30 0
  43 000c 08BD     		pop	{r3, pc}
  44              	.L4:
  45 000e 00BF     		.align	2
  46              	.L3:
  47 0010 00000000 		.word	curPos
  48              		.cfi_endproc
  49              	.LFE64:
  50              		.size	CapSense_DisplayState, .-CapSense_DisplayState
  51              		.section	.text.stepper,"ax",%progbits
  52              		.align	2
  53              		.global	stepper
  54              		.thumb
  55              		.thumb_func
  56              		.type	stepper, %function
  57              	stepper:
  58              	.LFB65:
  31:main.c        **** 
  32:main.c        **** 
  33:main.c        **** 
  34:main.c        **** 
  35:main.c        **** void stepper(int a, int b, int c, int d, int delay)
  36:main.c        **** {
  59              		.loc 1 36 0
  60              		.cfi_startproc
  61              		@ args = 4, pretend = 0, frame = 0
  62              		@ frame_needed = 0, uses_anonymous_args = 0
  63              	.LVL1:
  64 0000 70B5     		push	{r4, r5, r6, lr}
  65              		.cfi_def_cfa_offset 16
  66              		.cfi_offset 4, -16
  67              		.cfi_offset 5, -12
  68              		.cfi_offset 6, -8
  69              		.cfi_offset 14, -4
  70 0002 0E46     		mov	r6, r1
  71 0004 1546     		mov	r5, r2
  72 0006 1C46     		mov	r4, r3
  37:main.c        ****     A_Write(a);
  73              		.loc 1 37 0
  74 0008 C0B2     		uxtb	r0, r0
  75              	.LVL2:
  76 000a FFF7FEFF 		bl	A_Write
  77              	.LVL3:
ARM GAS  C:\Users\sinow\AppData\Local\Temp\cczf4fVe.s 			page 3


  38:main.c        ****     B_Write(b);
  78              		.loc 1 38 0
  79 000e F0B2     		uxtb	r0, r6
  80 0010 FFF7FEFF 		bl	B_Write
  81              	.LVL4:
  39:main.c        ****     C_Write(c);
  82              		.loc 1 39 0
  83 0014 E8B2     		uxtb	r0, r5
  84 0016 FFF7FEFF 		bl	C_Write
  85              	.LVL5:
  40:main.c        ****     D_Write(d);
  86              		.loc 1 40 0
  87 001a E0B2     		uxtb	r0, r4
  88 001c FFF7FEFF 		bl	D_Write
  89              	.LVL6:
  41:main.c        ****     CyDelay(delay);
  90              		.loc 1 41 0
  91 0020 0498     		ldr	r0, [sp, #16]
  92 0022 FFF7FEFF 		bl	CyDelay
  93              	.LVL7:
  94 0026 70BD     		pop	{r4, r5, r6, pc}
  95              		.cfi_endproc
  96              	.LFE65:
  97              		.size	stepper, .-stepper
  98              		.section	.text.range_map,"ax",%progbits
  99              		.align	2
 100              		.global	range_map
 101              		.thumb
 102              		.thumb_func
 103              		.type	range_map, %function
 104              	range_map:
 105              	.LFB66:
  42:main.c        **** }
  43:main.c        **** 
  44:main.c        **** 
  45:main.c        **** int range_map(int x, int a, int b, int c, int d) // y = (x-a)((d-c)/(b-a)) + c   | range [a,b] | ra
  46:main.c        **** {
 106              		.loc 1 46 0
 107              		.cfi_startproc
 108              		@ args = 4, pretend = 0, frame = 0
 109              		@ frame_needed = 0, uses_anonymous_args = 0
 110              		@ link register save eliminated.
 111              	.LVL8:
 112 0000 10B4     		push	{r4}
 113              		.cfi_def_cfa_offset 4
 114              		.cfi_offset 4, -4
  47:main.c        ****     int mapped_out;                              //mapping function to convert 0-255 ADC (8-bit) ou
  48:main.c        ****     
  49:main.c        ****     mapped_out = ((x - a)*(d - c)/(b - a)) + c;
 115              		.loc 1 49 0
 116 0002 401A     		subs	r0, r0, r1
 117              	.LVL9:
 118 0004 019C     		ldr	r4, [sp, #4]
 119 0006 E41A     		subs	r4, r4, r3
 120 0008 04FB00F0 		mul	r0, r4, r0
 121 000c 521A     		subs	r2, r2, r1
 122              	.LVL10:
ARM GAS  C:\Users\sinow\AppData\Local\Temp\cczf4fVe.s 			page 4


 123 000e 90FBF2F0 		sdiv	r0, r0, r2
 124              	.LVL11:
  50:main.c        ****     
  51:main.c        ****     return mapped_out;
  52:main.c        **** }
 125              		.loc 1 52 0
 126 0012 1844     		add	r0, r0, r3
 127              	.LVL12:
 128 0014 10BC     		pop	{r4}
 129              		.cfi_restore 4
 130              		.cfi_def_cfa_offset 0
 131              	.LVL13:
 132 0016 7047     		bx	lr
 133              		.cfi_endproc
 134              	.LFE66:
 135              		.size	range_map, .-range_map
 136              		.section	.text.main,"ax",%progbits
 137              		.align	2
 138              		.global	main
 139              		.thumb
 140              		.thumb_func
 141              		.type	main, %function
 142              	main:
 143              	.LFB67:
  53:main.c        **** 
  54:main.c        **** int main(void)
  55:main.c        **** {
 144              		.loc 1 55 0
 145              		.cfi_startproc
 146              		@ args = 0, pretend = 0, frame = 256
 147              		@ frame_needed = 0, uses_anonymous_args = 0
 148 0000 2DE9F043 		push	{r4, r5, r6, r7, r8, r9, lr}
 149              		.cfi_def_cfa_offset 28
 150              		.cfi_offset 4, -28
 151              		.cfi_offset 5, -24
 152              		.cfi_offset 6, -20
 153              		.cfi_offset 7, -16
 154              		.cfi_offset 8, -12
 155              		.cfi_offset 9, -8
 156              		.cfi_offset 14, -4
 157 0004 C3B0     		sub	sp, sp, #268
 158              		.cfi_def_cfa_offset 296
  56:main.c        ****     CyGlobalIntEnable; 
 159              		.loc 1 56 0
 160              		.syntax unified
 161              	@ 56 "main.c" 1
 162 0006 62B6     		CPSIE   i
 163              	@ 0 "" 2
  57:main.c        ****     
  58:main.c        ****     LCD_Char_1_Start();//initalizing lcd
 164              		.loc 1 58 0
 165              		.thumb
 166              		.syntax unified
 167 0008 FFF7FEFF 		bl	LCD_Char_1_Start
 168              	.LVL14:
  59:main.c        ****     char lcdOutput[256];//string for lcd display
  60:main.c        ****     
ARM GAS  C:\Users\sinow\AppData\Local\Temp\cczf4fVe.s 			page 5


  61:main.c        ****     PWM_1_Start(); //start PWM block 1
 169              		.loc 1 61 0
 170 000c FFF7FEFF 		bl	PWM_1_Start
 171              	.LVL15:
  62:main.c        ****     ADC_SAR_1_Start(); //start SAR ADC 1
 172              		.loc 1 62 0
 173 0010 FFF7FEFF 		bl	ADC_SAR_1_Start
 174              	.LVL16:
  63:main.c        ****     PWM_2_Start(); //start PWM block 2
 175              		.loc 1 63 0
 176 0014 FFF7FEFF 		bl	PWM_2_Start
 177              	.LVL17:
  64:main.c        ****     ADC_SAR_2_Start(); //start SAR ADC 2
 178              		.loc 1 64 0
 179 0018 FFF7FEFF 		bl	ADC_SAR_2_Start
 180              	.LVL18:
  65:main.c        ****     ADC_DelSig_1_Start();
 181              		.loc 1 65 0
 182 001c FFF7FEFF 		bl	ADC_DelSig_1_Start
 183              	.LVL19:
  66:main.c        ****     PWM_3_Start();
 184              		.loc 1 66 0
 185 0020 FFF7FEFF 		bl	PWM_3_Start
 186              	.LVL20:
  67:main.c        ****     
  68:main.c        ****     CapSense_CSD_Start();
 187              		.loc 1 68 0
 188 0024 FFF7FEFF 		bl	CapSense_CSD_Start
 189              	.LVL21:
  69:main.c        ****     CapSense_CSD_InitializeAllBaselines();
 190              		.loc 1 69 0
 191 0028 FFF7FEFF 		bl	CapSense_CSD_InitializeAllBaselines
 192              	.LVL22:
  70:main.c        ****     
  71:main.c        ****  
  72:main.c        ****     
  73:main.c        ****     int val1; //initial adc output val
  74:main.c        ****     int val2;
  75:main.c        ****     int val3;
  76:main.c        ****     
  77:main.c        ****     int stepVal = 0;
  78:main.c        ****     int prev_val = 0;
 193              		.loc 1 78 0
 194 002c 0025     		movs	r5, #0
 195              	.LVL23:
 196              	.L13:
  79:main.c        ****     
  80:main.c        ****     int mapped_val1; //val post mapping
  81:main.c        ****     int mapped_val2;
  82:main.c        ****     int mapped_val3;
  83:main.c        ****      
  84:main.c        **** 
  85:main.c        ****     for(;;)
  86:main.c        ****     {
  87:main.c        ****         ADC_SAR_1_StartConvert();
 197              		.loc 1 87 0
 198 002e FFF7FEFF 		bl	ADC_SAR_1_StartConvert
ARM GAS  C:\Users\sinow\AppData\Local\Temp\cczf4fVe.s 			page 6


 199              	.LVL24:
  88:main.c        ****         ADC_SAR_2_StartConvert(); //note: max amount of SAR ADCs is 2 on PSOC5 LP
 200              		.loc 1 88 0
 201 0032 FFF7FEFF 		bl	ADC_SAR_2_StartConvert
 202              	.LVL25:
  89:main.c        ****         ADC_DelSig_1_StartConvert();
 203              		.loc 1 89 0
 204 0036 FFF7FEFF 		bl	ADC_DelSig_1_StartConvert
 205              	.LVL26:
  90:main.c        ****         
  91:main.c        ****         
  92:main.c        ****         ADC_SAR_1_IsEndConversion(ADC_SAR_1_WAIT_FOR_RESULT); //wait for ADC output
 206              		.loc 1 92 0
 207 003a 0020     		movs	r0, #0
 208 003c FFF7FEFF 		bl	ADC_SAR_1_IsEndConversion
 209              	.LVL27:
  93:main.c        ****         ADC_SAR_2_IsEndConversion(ADC_SAR_2_WAIT_FOR_RESULT);
 210              		.loc 1 93 0
 211 0040 0020     		movs	r0, #0
 212 0042 FFF7FEFF 		bl	ADC_SAR_2_IsEndConversion
 213              	.LVL28:
  94:main.c        ****         ADC_DelSig_1_IsEndConversion(ADC_DelSig_1_WAIT_FOR_RESULT);
 214              		.loc 1 94 0
 215 0046 0020     		movs	r0, #0
 216 0048 FFF7FEFF 		bl	ADC_DelSig_1_IsEndConversion
 217              	.LVL29:
  95:main.c        ****         
  96:main.c        ****                 
  97:main.c        ****         if(0u == CapSense_CSD_IsBusy())
 218              		.loc 1 97 0
 219 004c FFF7FEFF 		bl	CapSense_CSD_IsBusy
 220              	.LVL30:
 221 0050 18B9     		cbnz	r0, .L10
  98:main.c        ****         {
  99:main.c        ****             CapSense_CSD_UpdateEnabledBaselines();
 222              		.loc 1 99 0
 223 0052 FFF7FEFF 		bl	CapSense_CSD_UpdateEnabledBaselines
 224              	.LVL31:
 100:main.c        ****             CapSense_CSD_ScanEnabledWidgets();
 225              		.loc 1 100 0
 226 0056 FFF7FEFF 		bl	CapSense_CSD_ScanEnabledWidgets
 227              	.LVL32:
 228              	.L10:
 101:main.c        ****         }
 102:main.c        ****         
 103:main.c        ****         val3 = CapSense_DisplayState();
 229              		.loc 1 103 0
 230 005a FFF7FEFF 		bl	CapSense_DisplayState
 231              	.LVL33:
 232 005e 8146     		mov	r9, r0
 233              	.LVL34:
 104:main.c        ****         
 105:main.c        ****         
 106:main.c        ****         val1 = (uint8_t) ADC_SAR_1_GetResult8(); //casting to uint8, as the input is int8 (bug)
 234              		.loc 1 106 0
 235 0060 FFF7FEFF 		bl	ADC_SAR_1_GetResult8
 236              	.LVL35:
ARM GAS  C:\Users\sinow\AppData\Local\Temp\cczf4fVe.s 			page 7


 237 0064 5FFA80F8 		uxtb	r8, r0
 238              	.LVL36:
 107:main.c        ****         val2 = (uint8_t) ADC_SAR_2_GetResult8();
 239              		.loc 1 107 0
 240 0068 FFF7FEFF 		bl	ADC_SAR_2_GetResult8
 241              	.LVL37:
 242 006c C7B2     		uxtb	r7, r0
 243              	.LVL38:
 108:main.c        ****         stepVal = (uint8_t) ADC_DelSig_1_GetResult8();
 244              		.loc 1 108 0
 245 006e FFF7FEFF 		bl	ADC_DelSig_1_GetResult8
 246              	.LVL39:
 247 0072 C4B2     		uxtb	r4, r0
 248              	.LVL40:
 109:main.c        ****         
 110:main.c        ****         mapped_val1 = range_map(val1, 0, 255, 850, 4500);//mapping 0-255 range of pot to 850-4500 r
 249              		.loc 1 110 0
 250 0074 41F29416 		movw	r6, #4500
 251 0078 0096     		str	r6, [sp]
 252 007a 40F25233 		movw	r3, #850
 253 007e FF22     		movs	r2, #255
 254 0080 0021     		movs	r1, #0
 255 0082 4046     		mov	r0, r8
 256 0084 FFF7FEFF 		bl	range_map
 257              	.LVL41:
 258 0088 8046     		mov	r8, r0
 259              	.LVL42:
 111:main.c        ****         mapped_val2 = range_map(val2, 0, 255, 850, 4500);
 260              		.loc 1 111 0
 261 008a 0096     		str	r6, [sp]
 262 008c 40F25233 		movw	r3, #850
 263 0090 FF22     		movs	r2, #255
 264 0092 0021     		movs	r1, #0
 265 0094 3846     		mov	r0, r7
 266              	.LVL43:
 267 0096 FFF7FEFF 		bl	range_map
 268              	.LVL44:
 269 009a 0746     		mov	r7, r0
 270              	.LVL45:
 112:main.c        ****         mapped_val3 = range_map(val3, 10, 85, 850, 4400);
 271              		.loc 1 112 0
 272 009c 41F23013 		movw	r3, #4400
 273 00a0 0093     		str	r3, [sp]
 274 00a2 40F25233 		movw	r3, #850
 275 00a6 5522     		movs	r2, #85
 276 00a8 0A21     		movs	r1, #10
 277 00aa 4846     		mov	r0, r9
 278              	.LVL46:
 279 00ac FFF7FEFF 		bl	range_map
 280              	.LVL47:
 281 00b0 0646     		mov	r6, r0
 282              	.LVL48:
 113:main.c        ****         
 114:main.c        ****         PWM_1_WriteCompare(mapped_val1); //writing to pwm (servo)
 283              		.loc 1 114 0
 284 00b2 1FFA88F0 		uxth	r0, r8
 285              	.LVL49:
ARM GAS  C:\Users\sinow\AppData\Local\Temp\cczf4fVe.s 			page 8


 286 00b6 FFF7FEFF 		bl	PWM_1_WriteCompare
 287              	.LVL50:
 115:main.c        ****         PWM_2_WriteCompare(mapped_val2);
 288              		.loc 1 115 0
 289 00ba B8B2     		uxth	r0, r7
 290 00bc FFF7FEFF 		bl	PWM_2_WriteCompare
 291              	.LVL51:
 116:main.c        ****         PWM_3_WriteCompare(mapped_val3);
 292              		.loc 1 116 0
 293 00c0 B0B2     		uxth	r0, r6
 294 00c2 FFF7FEFF 		bl	PWM_3_WriteCompare
 295              	.LVL52:
 117:main.c        ****         
 118:main.c        ****         
 119:main.c        ****         if(stepVal > prev_val) //clockwise motion
 296              		.loc 1 119 0
 297 00c6 A542     		cmp	r5, r4
 298 00c8 21DA     		bge	.L11
 120:main.c        ****         {
 121:main.c        ****             stepper(1,0,0,0,2);
 299              		.loc 1 121 0
 300 00ca 4FF00209 		mov	r9, #2
 301              	.LVL53:
 302 00ce CDF80090 		str	r9, [sp]
 303 00d2 0023     		movs	r3, #0
 304 00d4 1A46     		mov	r2, r3
 305 00d6 1946     		mov	r1, r3
 306 00d8 0120     		movs	r0, #1
 307 00da FFF7FEFF 		bl	stepper
 308              	.LVL54:
 122:main.c        ****             stepper(0,1,0,0,2);
 309              		.loc 1 122 0
 310 00de CDF80090 		str	r9, [sp]
 311 00e2 0023     		movs	r3, #0
 312 00e4 1A46     		mov	r2, r3
 313 00e6 0121     		movs	r1, #1
 314 00e8 1846     		mov	r0, r3
 315 00ea FFF7FEFF 		bl	stepper
 316              	.LVL55:
 123:main.c        ****             stepper(0,0,1,0,2);
 317              		.loc 1 123 0
 318 00ee CDF80090 		str	r9, [sp]
 319 00f2 0023     		movs	r3, #0
 320 00f4 0122     		movs	r2, #1
 321 00f6 1946     		mov	r1, r3
 322 00f8 1846     		mov	r0, r3
 323 00fa FFF7FEFF 		bl	stepper
 324              	.LVL56:
 124:main.c        ****             stepper(0,0,0,1,2);
 325              		.loc 1 124 0
 326 00fe CDF80090 		str	r9, [sp]
 327 0102 0123     		movs	r3, #1
 328 0104 0022     		movs	r2, #0
 329 0106 1146     		mov	r1, r2
 330 0108 1046     		mov	r0, r2
 331 010a FFF7FEFF 		bl	stepper
 332              	.LVL57:
ARM GAS  C:\Users\sinow\AppData\Local\Temp\cczf4fVe.s 			page 9


 333              	.L11:
 125:main.c        ****             
 126:main.c        ****             
 127:main.c        ****             
 128:main.c        ****         }
 129:main.c        ****         if(stepVal < prev_val) //counter-clockwise motion
 334              		.loc 1 129 0
 335 010e A542     		cmp	r5, r4
 336 0110 1CDD     		ble	.L12
 130:main.c        ****         {
 131:main.c        ****             
 132:main.c        ****             stepper(0,0,1,0,2);
 337              		.loc 1 132 0
 338 0112 0225     		movs	r5, #2
 339              	.LVL58:
 340 0114 0095     		str	r5, [sp]
 341 0116 0023     		movs	r3, #0
 342 0118 0122     		movs	r2, #1
 343 011a 1946     		mov	r1, r3
 344 011c 1846     		mov	r0, r3
 345 011e FFF7FEFF 		bl	stepper
 346              	.LVL59:
 133:main.c        ****             stepper(0,1,0,0,2);
 347              		.loc 1 133 0
 348 0122 0095     		str	r5, [sp]
 349 0124 0023     		movs	r3, #0
 350 0126 1A46     		mov	r2, r3
 351 0128 0121     		movs	r1, #1
 352 012a 1846     		mov	r0, r3
 353 012c FFF7FEFF 		bl	stepper
 354              	.LVL60:
 134:main.c        ****             stepper(1,0,0,0,2);
 355              		.loc 1 134 0
 356 0130 0095     		str	r5, [sp]
 357 0132 0023     		movs	r3, #0
 358 0134 1A46     		mov	r2, r3
 359 0136 1946     		mov	r1, r3
 360 0138 0120     		movs	r0, #1
 361 013a FFF7FEFF 		bl	stepper
 362              	.LVL61:
 135:main.c        ****             stepper(0,0,0,1,2);
 363              		.loc 1 135 0
 364 013e 0095     		str	r5, [sp]
 365 0140 0123     		movs	r3, #1
 366 0142 0022     		movs	r2, #0
 367 0144 1146     		mov	r1, r2
 368 0146 1046     		mov	r0, r2
 369 0148 FFF7FEFF 		bl	stepper
 370              	.LVL62:
 371              	.L12:
 136:main.c        ****             
 137:main.c        ****             
 138:main.c        ****         }
 139:main.c        ****         prev_val = stepVal;
 140:main.c        ****            
 141:main.c        ****         
 142:main.c        ****         
ARM GAS  C:\Users\sinow\AppData\Local\Temp\cczf4fVe.s 			page 10


 143:main.c        ****             LCD_Char_1_ClearDisplay(); //clears display
 372              		.loc 1 143 0
 373 014c 0120     		movs	r0, #1
 374 014e FFF7FEFF 		bl	LCD_Char_1_WriteControl
 375              	.LVL63:
 144:main.c        ****             LCD_Char_1_WriteControl(LCD_Char_1_CURSOR_HOME); //sets cursor to top left corner
 376              		.loc 1 144 0
 377 0152 0220     		movs	r0, #2
 378 0154 FFF7FEFF 		bl	LCD_Char_1_WriteControl
 379              	.LVL64:
 145:main.c        ****             sprintf(lcdOutput,"Val1=%d", (int)mapped_val1);
 380              		.loc 1 145 0
 381 0158 4246     		mov	r2, r8
 382 015a 1249     		ldr	r1, .L15
 383 015c 02A8     		add	r0, sp, #8
 384 015e FFF7FEFF 		bl	sprintf
 385              	.LVL65:
 146:main.c        ****             LCD_Char_1_Position(0,0); 
 386              		.loc 1 146 0
 387 0162 0021     		movs	r1, #0
 388 0164 0846     		mov	r0, r1
 389 0166 FFF7FEFF 		bl	LCD_Char_1_Position
 390              	.LVL66:
 147:main.c        ****             LCD_Char_1_PrintString(lcdOutput); //prints PWM value for servo 1
 391              		.loc 1 147 0
 392 016a 02A8     		add	r0, sp, #8
 393 016c FFF7FEFF 		bl	LCD_Char_1_PrintString
 394              	.LVL67:
 148:main.c        ****             
 149:main.c        ****             sprintf(lcdOutput,"Val2=%d", (int)mapped_val2);
 395              		.loc 1 149 0
 396 0170 3A46     		mov	r2, r7
 397 0172 0D49     		ldr	r1, .L15+4
 398 0174 02A8     		add	r0, sp, #8
 399 0176 FFF7FEFF 		bl	sprintf
 400              	.LVL68:
 150:main.c        ****             LCD_Char_1_Position(1,0); 
 401              		.loc 1 150 0
 402 017a 0021     		movs	r1, #0
 403 017c 0120     		movs	r0, #1
 404 017e FFF7FEFF 		bl	LCD_Char_1_Position
 405              	.LVL69:
 151:main.c        ****             LCD_Char_1_PrintString(lcdOutput); //prints PWM value for servo 1
 406              		.loc 1 151 0
 407 0182 02A8     		add	r0, sp, #8
 408 0184 FFF7FEFF 		bl	LCD_Char_1_PrintString
 409              	.LVL70:
 152:main.c        ****             
 153:main.c        ****             sprintf(lcdOutput,"Val3=%d", (int)mapped_val3);
 410              		.loc 1 153 0
 411 0188 3246     		mov	r2, r6
 412 018a 0849     		ldr	r1, .L15+8
 413 018c 02A8     		add	r0, sp, #8
 414 018e FFF7FEFF 		bl	sprintf
 415              	.LVL71:
 154:main.c        ****             LCD_Char_1_Position(8,0); 
 416              		.loc 1 154 0
ARM GAS  C:\Users\sinow\AppData\Local\Temp\cczf4fVe.s 			page 11


 417 0192 0021     		movs	r1, #0
 418 0194 0820     		movs	r0, #8
 419 0196 FFF7FEFF 		bl	LCD_Char_1_Position
 420              	.LVL72:
 155:main.c        ****             LCD_Char_1_PrintString(lcdOutput); //prints PWM value for servo 1
 421              		.loc 1 155 0
 422 019a 02A8     		add	r0, sp, #8
 423 019c FFF7FEFF 		bl	LCD_Char_1_PrintString
 424              	.LVL73:
 139:main.c        ****            
 425              		.loc 1 139 0
 426 01a0 2546     		mov	r5, r4
 156:main.c        ****             
 157:main.c        ****             
 158:main.c        ****             //CyDelay(20);
 159:main.c        ****             
 160:main.c        ****             
 161:main.c        ****         /*
 162:main.c        ****         due to SAR ADC # limits, possibly add switching buttons to switch between controlling
 163:main.c        ****         different servos with a single potentiometer, and use sliding CapSense for claw control
 164:main.c        ****         */
 165:main.c        ****             
 166:main.c        **** 
 167:main.c        ****         
 168:main.c        ****         
 169:main.c        ****     }
 427              		.loc 1 169 0
 428 01a2 44E7     		b	.L13
 429              	.L16:
 430              		.align	2
 431              	.L15:
 432 01a4 00000000 		.word	.LC0
 433 01a8 08000000 		.word	.LC1
 434 01ac 10000000 		.word	.LC2
 435              		.cfi_endproc
 436              	.LFE67:
 437              		.size	main, .-main
 438              		.comm	oldPos,2,2
 439              		.comm	curPos,2,2
 440              		.section	.rodata.str1.4,"aMS",%progbits,1
 441              		.align	2
 442              	.LC0:
 443 0000 56616C31 		.ascii	"Val1=%d\000"
 443      3D256400 
 444              	.LC1:
 445 0008 56616C32 		.ascii	"Val2=%d\000"
 445      3D256400 
 446              	.LC2:
 447 0010 56616C33 		.ascii	"Val3=%d\000"
 447      3D256400 
 448              		.text
 449              	.Letext0:
 450              		.file 2 "c:\\program files (x86)\\cypress\\psoc creator\\4.2\\psoc creator\\import\\gnu\\arm\\5.4.
 451              		.file 3 "c:\\program files (x86)\\cypress\\psoc creator\\4.2\\psoc creator\\import\\gnu\\arm\\5.4.
 452              		.file 4 "Generated_Source\\PSoC5/cytypes.h"
 453              		.file 5 "Generated_Source\\PSoC5/core_cm3.h"
 454              		.file 6 "Generated_Source\\PSoC5/CapSense_CSD_CSHL.h"
ARM GAS  C:\Users\sinow\AppData\Local\Temp\cczf4fVe.s 			page 12


 455              		.file 7 "Generated_Source\\PSoC5/A.h"
 456              		.file 8 "Generated_Source\\PSoC5/B.h"
 457              		.file 9 "Generated_Source\\PSoC5/C.h"
 458              		.file 10 "Generated_Source\\PSoC5/D.h"
 459              		.file 11 "Generated_Source\\PSoC5/CyLib.h"
 460              		.file 12 "Generated_Source\\PSoC5/LCD_Char_1.h"
 461              		.file 13 "Generated_Source\\PSoC5/PWM_1.h"
 462              		.file 14 "Generated_Source\\PSoC5/ADC_SAR_1.h"
 463              		.file 15 "Generated_Source\\PSoC5/PWM_2.h"
 464              		.file 16 "Generated_Source\\PSoC5/ADC_SAR_2.h"
 465              		.file 17 "Generated_Source\\PSoC5/ADC_DelSig_1.h"
 466              		.file 18 "Generated_Source\\PSoC5/PWM_3.h"
 467              		.file 19 "Generated_Source\\PSoC5/CapSense_CSD.h"
 468              		.file 20 "c:\\program files (x86)\\cypress\\psoc creator\\4.2\\psoc creator\\import\\gnu\\arm\\5.4