ARM GAS  C:\Users\sinow\AppData\Local\Temp\ccGSZQTw.s 			page 1


   1              		.syntax unified
   2              		.cpu cortex-m3
   3              		.fpu softvfp
   4              		.eabi_attribute 20, 1
   5              		.eabi_attribute 21, 1
   6              		.eabi_attribute 23, 3
   7              		.eabi_attribute 24, 1
   8              		.eabi_attribute 25, 1
   9              		.eabi_attribute 26, 1
  10              		.eabi_attribute 30, 6
  11              		.eabi_attribute 34, 1
  12              		.eabi_attribute 18, 4
  13              		.thumb
  14              		.syntax unified
  15              		.file	"main.c"
  16              		.text
  17              	.Ltext0:
  18              		.cfi_sections	.debug_frame
  19              		.global	h_tst
  20              		.data
  21              		.align	2
  22              		.type	h_tst, %object
  23              		.size	h_tst, 64
  24              	h_tst:
  25 0000 990B     		.short	2969
  26 0002 A10D     		.short	3489
  27 0004 2F1A     		.short	6703
  28 0006 BFE8     		.short	-5953
  29 0008 17FA     		.short	-1513
  30 000a 6519     		.short	6501
  31 000c 8902     		.short	649
  32 000e 2522     		.short	8741
  33 0010 8002     		.short	640
  34 0012 23EE     		.short	-4573
  35 0014 100B     		.short	2832
  36 0016 01D0     		.short	-12287
  37 0018 BAE7     		.short	-6214
  38 001a 4CFB     		.short	-1204
  39 001c E0ED     		.short	-4640
  40 001e 37EA     		.short	-5577
  41 0020 F301     		.short	499
  42 0022 2EF0     		.short	-4050
  43 0024 1803     		.short	792
  44 0026 93FC     		.short	-877
  45 0028 9105     		.short	1425
  46 002a 9228     		.short	10386
  47 002c 94FA     		.short	-1388
  48 002e BAF3     		.short	-3142
  49 0030 0CCD     		.short	-13044
  50 0032 16F8     		.short	-2026
  51 0034 1AF4     		.short	-3046
  52 0036 5229     		.short	10578
  53 0038 5AF5     		.short	-2726
  54 003a 8216     		.short	5762
  55 003c 95EC     		.short	-4971
  56 003e 5E22     		.short	8798
  57              		.global	x_tst
ARM GAS  C:\Users\sinow\AppData\Local\Temp\ccGSZQTw.s 			page 2


  58              		.align	2
  59              		.type	x_tst, %object
  60              		.size	x_tst, 64
  61              	x_tst:
  62 0040 4311     		.short	4419
  63 0042 140B     		.short	2836
  64 0044 B4F7     		.short	-2124
  65 0046 152E     		.short	11797
  66 0048 C8F8     		.short	-1848
  67 004a AA1B     		.short	7082
  68 004c 8EF3     		.short	-3186
  69 004e 81F6     		.short	-2431
  70 0050 49CB     		.short	-13495
  71 0052 95F0     		.short	-3947
  72 0054 79F2     		.short	-3463
  73 0056 5E1C     		.short	7262
  74 0058 FC03     		.short	1020
  75 005a 5DF9     		.short	-1699
  76 005c 2CFB     		.short	-1236
  77 005e 1E39     		.short	14622
  78 0060 26FD     		.short	-730
  79 0062 3C27     		.short	10044
  80 0064 B109     		.short	2481
  81 0066 B411     		.short	4532
  82 0068 A6FB     		.short	-1114
  83 006a 431F     		.short	8003
  84 006c A715     		.short	5543
  85 006e 06F2     		.short	-3578
  86 0070 38DD     		.short	-8904
  87 0072 A7FF     		.short	-89
  88 0074 52F7     		.short	-2222
  89 0076 E611     		.short	4582
  90 0078 BF01     		.short	447
  91 007a 6AF7     		.short	-2198
  92 007c 5105     		.short	1361
  93 007e A705     		.short	1447
  94              		.section	.text.inner_prod,"ax",%progbits
  95              		.align	2
  96              		.global	inner_prod
  97              		.thumb
  98              		.thumb_func
  99              		.type	inner_prod, %function
 100              	inner_prod:
 101              	.LFB63:
 102              		.file 1 "main.c"
   1:main.c        **** #include "project.h"
   2:main.c        **** 
   3:main.c        **** #define VEC_SZ (32)
   4:main.c        **** 
   5:main.c        **** // Define arrays for testing, these values have been strategically
   6:main.c        **** // created!  
   7:main.c        **** 
   8:main.c        **** // Once you run the code -- see if you can figure out
   9:main.c        **** // what is special about them!
  10:main.c        **** int16_t h_tst[] = { 2969,  3489,   6703, -5953,  -1513,   6501,    
  11:main.c        ****                      649,  8741,    640, -4573,   2832, -12287,  
  12:main.c        ****                    -6214, -1204,  -4640, -5577,    499,  -4050,    
ARM GAS  C:\Users\sinow\AppData\Local\Temp\ccGSZQTw.s 			page 3


  13:main.c        ****                      792,  -877,   1425, 10386,  -1388,  -3142, 
  14:main.c        ****                   -13044, -2026,  -3046, 10578,  -2726,   5762,  
  15:main.c        ****                    -4971,  8798};
  16:main.c        **** 
  17:main.c        **** int16_t x_tst[] = { 4419,   2836,  -2124,  11797,  -1848,   7082,  
  18:main.c        ****                    -3186,  -2431, -13495,  -3947,  -3463,   7262,   
  19:main.c        ****                     1020,  -1699,  -1236,  14622,   -730,  10044,   
  20:main.c        ****                     2481,   4532,  -1114,   8003,   5543,  -3578,  
  21:main.c        ****                    -8904,    -89,  -2222,   4582,    447,  -2198,   
  22:main.c        ****                     1361,   1447};
  23:main.c        ****                     
  24:main.c        **** 
  25:main.c        **** // Prototype declarations    
  26:main.c        **** int16_t inner_prod( int16_t *h, int16_t *x, int n );
  27:main.c        **** int16_t inner_prod_asm( int16_t *h, int16_t *x, int n );
  28:main.c        **** 
  29:main.c        **** 
  30:main.c        **** // Function:    inner_prod
  31:main.c        **** // Description: Computes the inner product between two length-n arrays of
  32:main.c        **** //              signed 16-bit values, with a right-shift of 16-bits.
  33:main.c        **** // Inputs:      h - pointer to array of int16_t values, length n
  34:main.c        **** //              x - pointer to array of int16_t values, length n
  35:main.c        **** // Returns:     [x (dot) h] >> 16, as an int16_t value
  36:main.c        **** 
  37:main.c        **** int16_t inner_prod( int16_t *h, int16_t *x, int n )
  38:main.c        **** {
 103              		.loc 1 38 0
 104              		.cfi_startproc
 105              		@ args = 0, pretend = 0, frame = 24
 106              		@ frame_needed = 1, uses_anonymous_args = 0
 107              		@ link register save eliminated.
 108 0000 80B4     		push	{r7}
 109              		.cfi_def_cfa_offset 4
 110              		.cfi_offset 7, -4
 111 0002 87B0     		sub	sp, sp, #28
 112              		.cfi_def_cfa_offset 32
 113 0004 00AF     		add	r7, sp, #0
 114              		.cfi_def_cfa_register 7
 115 0006 F860     		str	r0, [r7, #12]
 116 0008 B960     		str	r1, [r7, #8]
 117 000a 7A60     		str	r2, [r7, #4]
  39:main.c        ****     int i;
  40:main.c        ****     int32_t sum = 0;            // initialize running sum to zero
 118              		.loc 1 40 0
 119 000c 0023     		movs	r3, #0
 120 000e 3B61     		str	r3, [r7, #16]
  41:main.c        ****     
  42:main.c        ****     for (i = 0; i < n; ++i)
 121              		.loc 1 42 0
 122 0010 0023     		movs	r3, #0
 123 0012 7B61     		str	r3, [r7, #20]
 124 0014 14E0     		b	.L2
 125              	.L3:
  43:main.c        ****     {
  44:main.c        ****         sum += (h[i] * x[i]);   // accumulate each of the 'n' product terms
 126              		.loc 1 44 0 discriminator 3
 127 0016 7B69     		ldr	r3, [r7, #20]
ARM GAS  C:\Users\sinow\AppData\Local\Temp\ccGSZQTw.s 			page 4


 128 0018 5B00     		lsls	r3, r3, #1
 129 001a FA68     		ldr	r2, [r7, #12]
 130 001c 1344     		add	r3, r3, r2
 131 001e B3F90030 		ldrsh	r3, [r3]
 132 0022 1946     		mov	r1, r3
 133 0024 7B69     		ldr	r3, [r7, #20]
 134 0026 5B00     		lsls	r3, r3, #1
 135 0028 BA68     		ldr	r2, [r7, #8]
 136 002a 1344     		add	r3, r3, r2
 137 002c B3F90030 		ldrsh	r3, [r3]
 138 0030 03FB01F3 		mul	r3, r3, r1
 139 0034 3A69     		ldr	r2, [r7, #16]
 140 0036 1344     		add	r3, r3, r2
 141 0038 3B61     		str	r3, [r7, #16]
  42:main.c        ****     {
 142              		.loc 1 42 0 discriminator 3
 143 003a 7B69     		ldr	r3, [r7, #20]
 144 003c 0133     		adds	r3, r3, #1
 145 003e 7B61     		str	r3, [r7, #20]
 146              	.L2:
  42:main.c        ****     {
 147              		.loc 1 42 0 is_stmt 0 discriminator 1
 148 0040 7A69     		ldr	r2, [r7, #20]
 149 0042 7B68     		ldr	r3, [r7, #4]
 150 0044 9A42     		cmp	r2, r3
 151 0046 E6DB     		blt	.L3
  45:main.c        ****     }
  46:main.c        ****     sum = sum >> 16;            // right shift to normalize
 152              		.loc 1 46 0 is_stmt 1
 153 0048 3B69     		ldr	r3, [r7, #16]
 154 004a 1B14     		asrs	r3, r3, #16
 155 004c 3B61     		str	r3, [r7, #16]
  47:main.c        ****     
  48:main.c        ****     return (int16_t) sum;       // return value truncated to int16_t range
 156              		.loc 1 48 0
 157 004e 3B69     		ldr	r3, [r7, #16]
 158 0050 1BB2     		sxth	r3, r3
  49:main.c        **** }
 159              		.loc 1 49 0
 160 0052 1846     		mov	r0, r3
 161 0054 1C37     		adds	r7, r7, #28
 162              		.cfi_def_cfa_offset 4
 163 0056 BD46     		mov	sp, r7
 164              		.cfi_def_cfa_register 13
 165              		@ sp needed
 166 0058 80BC     		pop	{r7}
 167              		.cfi_restore 7
 168              		.cfi_def_cfa_offset 0
 169 005a 7047     		bx	lr
 170              		.cfi_endproc
 171              	.LFE63:
 172              		.size	inner_prod, .-inner_prod
 173              		.section	.text.main,"ax",%progbits
 174              		.align	2
 175              		.global	main
 176              		.thumb
 177              		.thumb_func
ARM GAS  C:\Users\sinow\AppData\Local\Temp\ccGSZQTw.s 			page 5


 178              		.type	main, %function
 179              	main:
 180              	.LFB64:
  50:main.c        **** 
  51:main.c        **** int main(void)
  52:main.c        **** {
 181              		.loc 1 52 0
 182              		.cfi_startproc
 183              		@ args = 0, pretend = 0, frame = 16
 184              		@ frame_needed = 1, uses_anonymous_args = 0
 185 0000 80B5     		push	{r7, lr}
 186              		.cfi_def_cfa_offset 8
 187              		.cfi_offset 7, -8
 188              		.cfi_offset 14, -4
 189 0002 84B0     		sub	sp, sp, #16
 190              		.cfi_def_cfa_offset 24
 191 0004 00AF     		add	r7, sp, #0
 192              		.cfi_def_cfa_register 7
 193              	.L6:
  53:main.c        ****     int16_t t1;
  54:main.c        ****     int16_t t2;
  55:main.c        ****     int16_t t3;
  56:main.c        **** 
  57:main.c        ****     int16_t y1;
  58:main.c        ****     int16_t y2;
  59:main.c        ****     int16_t y3;
  60:main.c        **** 
  61:main.c        ****     for(;;)
  62:main.c        ****     {
  63:main.c        ****         // 'C' version
  64:main.c        ****         // ===========
  65:main.c        ****         
  66:main.c        ****         // **** NOTE: YOU MUST:
  67:main.c        ****         // insert code here to set port P0[0] to 0
  68:main.c        ****         Pin_1_Write(0);
 194              		.loc 1 68 0 discriminator 1
 195 0006 0020     		movs	r0, #0
 196 0008 FFF7FEFF 		bl	Pin_1_Write
  69:main.c        ****         // The time when the pin is ZERO represents how long it takes for the compiled 'C' code to 
  70:main.c        ****         
  71:main.c        ****         t1 = inner_prod( h_tst, x_tst, VEC_SZ );    // 'C' inner product between h and x
 197              		.loc 1 71 0 discriminator 1
 198 000c 2022     		movs	r2, #32
 199 000e 1649     		ldr	r1, .L7
 200 0010 1648     		ldr	r0, .L7+4
 201 0012 FFF7FEFF 		bl	inner_prod
 202 0016 0346     		mov	r3, r0
 203 0018 FB81     		strh	r3, [r7, #14]	@ movhi
  72:main.c        ****         t2 = inner_prod( h_tst, h_tst, VEC_SZ );    // 'C' inner product between h and h
 204              		.loc 1 72 0 discriminator 1
 205 001a 2022     		movs	r2, #32
 206 001c 1349     		ldr	r1, .L7+4
 207 001e 1348     		ldr	r0, .L7+4
 208 0020 FFF7FEFF 		bl	inner_prod
 209 0024 0346     		mov	r3, r0
 210 0026 BB81     		strh	r3, [r7, #12]	@ movhi
  73:main.c        ****         t3 = inner_prod( x_tst, x_tst, VEC_SZ );    // 'C' inner product between x and x
ARM GAS  C:\Users\sinow\AppData\Local\Temp\ccGSZQTw.s 			page 6


 211              		.loc 1 73 0 discriminator 1
 212 0028 2022     		movs	r2, #32
 213 002a 0F49     		ldr	r1, .L7
 214 002c 0E48     		ldr	r0, .L7
 215 002e FFF7FEFF 		bl	inner_prod
 216 0032 0346     		mov	r3, r0
 217 0034 7B81     		strh	r3, [r7, #10]	@ movhi
  74:main.c        ****         
  75:main.c        ****         // **** NOTE: YOU MUST:
  76:main.c        ****         // insert code here to set port P0[0] to 1
  77:main.c        ****         Pin_1_Write(1);
 218              		.loc 1 77 0 discriminator 1
 219 0036 0120     		movs	r0, #1
 220 0038 FFF7FEFF 		bl	Pin_1_Write
  78:main.c        ****         // The time when the pin is ONE represents how long it takes for your assembly code to run
  79:main.c        ****         
  80:main.c        ****         // ASM version (uncomment to test your ASM code)
  81:main.c        ****         // =============================================
  82:main.c        ****         y1 = inner_prod_asm( h_tst, x_tst, VEC_SZ );   // asm inner product between h and x
 221              		.loc 1 82 0 discriminator 1
 222 003c 2022     		movs	r2, #32
 223 003e 0A49     		ldr	r1, .L7
 224 0040 0A48     		ldr	r0, .L7+4
 225 0042 FFF7FEFF 		bl	inner_prod_asm
 226 0046 0346     		mov	r3, r0
 227 0048 3B81     		strh	r3, [r7, #8]	@ movhi
  83:main.c        ****         y2 = inner_prod_asm( h_tst, h_tst, VEC_SZ );   // asm inner product between h and h
 228              		.loc 1 83 0 discriminator 1
 229 004a 2022     		movs	r2, #32
 230 004c 0749     		ldr	r1, .L7+4
 231 004e 0748     		ldr	r0, .L7+4
 232 0050 FFF7FEFF 		bl	inner_prod_asm
 233 0054 0346     		mov	r3, r0
 234 0056 FB80     		strh	r3, [r7, #6]	@ movhi
  84:main.c        ****         y3 = inner_prod_asm( x_tst, x_tst, VEC_SZ );   // asm inner product between x and x
 235              		.loc 1 84 0 discriminator 1
 236 0058 2022     		movs	r2, #32
 237 005a 0349     		ldr	r1, .L7
 238 005c 0248     		ldr	r0, .L7
 239 005e FFF7FEFF 		bl	inner_prod_asm
 240 0062 0346     		mov	r3, r0
 241 0064 BB80     		strh	r3, [r7, #4]	@ movhi
  85:main.c        ****     }
 242              		.loc 1 85 0 discriminator 1
 243 0066 CEE7     		b	.L6
 244              	.L8:
 245              		.align	2
 246              	.L7:
 247 0068 00000000 		.word	x_tst
 248 006c 00000000 		.word	h_tst
 249              		.cfi_endproc
 250              	.LFE64:
 251              		.size	main, .-main
 252              		.text
 253              	.Letext0:
 254              		.file 2 "c:\\program files (x86)\\cypress\\psoc creator\\4.2\\psoc creator\\import\\gnu\\arm\\5.4.
 255              		.file 3 "c:\\program files (x86)\\cypress\\psoc creator\\4.2\\psoc creator\\import\\gnu\\arm\\5.4.
ARM GAS  C:\Users\sinow\AppData\Local\Temp\ccGSZQTw.s 			page 7


 256              		.file 4 "Generated_Source\\PSoC5/core_cm3.h"