ARM GAS  C:\Users\sinow\AppData\Local\Temp\ccxT5mml.s 			page 1


   1              		.syntax unified
   2              		.cpu cortex-m3
   3              		.fpu softvfp
   4              		.eabi_attribute 20, 1
   5              		.eabi_attribute 21, 1
   6              		.eabi_attribute 23, 3
   7              		.eabi_attribute 24, 1
   8              		.eabi_attribute 25, 1
   9              		.eabi_attribute 26, 1
  10              		.eabi_attribute 30, 1
  11              		.eabi_attribute 34, 1
  12              		.eabi_attribute 18, 4
  13              		.thumb
  14              		.syntax unified
  15              		.file	"isr_4.c"
  16              		.text
  17              	.Ltext0:
  18              		.cfi_sections	.debug_frame
  19              		.section	.text.isr_4_Interrupt,"ax",%progbits
  20              		.align	2
  21              		.global	isr_4_Interrupt
  22              		.thumb
  23              		.thumb_func
  24              		.type	isr_4_Interrupt, %function
  25              	isr_4_Interrupt:
  26              	.LFB67:
  27              		.file 1 "Generated_Source\\PSoC5\\isr_4.c"
   1:Generated_Source\PSoC5/isr_4.c **** /*******************************************************************************
   2:Generated_Source\PSoC5/isr_4.c **** * File Name: isr_4.c  
   3:Generated_Source\PSoC5/isr_4.c **** * Version 1.70
   4:Generated_Source\PSoC5/isr_4.c **** *
   5:Generated_Source\PSoC5/isr_4.c **** *  Description:
   6:Generated_Source\PSoC5/isr_4.c **** *   API for controlling the state of an interrupt.
   7:Generated_Source\PSoC5/isr_4.c **** *
   8:Generated_Source\PSoC5/isr_4.c **** *
   9:Generated_Source\PSoC5/isr_4.c **** *  Note:
  10:Generated_Source\PSoC5/isr_4.c **** *
  11:Generated_Source\PSoC5/isr_4.c **** ********************************************************************************
  12:Generated_Source\PSoC5/isr_4.c **** * Copyright 2008-2015, Cypress Semiconductor Corporation.  All rights reserved.
  13:Generated_Source\PSoC5/isr_4.c **** * You may use this file only in accordance with the license, terms, conditions, 
  14:Generated_Source\PSoC5/isr_4.c **** * disclaimers, and limitations in the end user license agreement accompanying 
  15:Generated_Source\PSoC5/isr_4.c **** * the software package with which this file was provided.
  16:Generated_Source\PSoC5/isr_4.c **** *******************************************************************************/
  17:Generated_Source\PSoC5/isr_4.c **** 
  18:Generated_Source\PSoC5/isr_4.c **** 
  19:Generated_Source\PSoC5/isr_4.c **** #include <cydevice_trm.h>
  20:Generated_Source\PSoC5/isr_4.c **** #include <CyLib.h>
  21:Generated_Source\PSoC5/isr_4.c **** #include <isr_4.h>
  22:Generated_Source\PSoC5/isr_4.c **** #include "cyapicallbacks.h"
  23:Generated_Source\PSoC5/isr_4.c **** 
  24:Generated_Source\PSoC5/isr_4.c **** #if !defined(isr_4__REMOVED) /* Check for removal by optimization */
  25:Generated_Source\PSoC5/isr_4.c **** 
  26:Generated_Source\PSoC5/isr_4.c **** /*******************************************************************************
  27:Generated_Source\PSoC5/isr_4.c **** *  Place your includes, defines and code here 
  28:Generated_Source\PSoC5/isr_4.c **** ********************************************************************************/
  29:Generated_Source\PSoC5/isr_4.c **** /* `#START isr_4_intc` */
  30:Generated_Source\PSoC5/isr_4.c ****     #include "project.h"
ARM GAS  C:\Users\sinow\AppData\Local\Temp\ccxT5mml.s 			page 2


  31:Generated_Source\PSoC5/isr_4.c ****     #include <stdio.h>
  32:Generated_Source\PSoC5/isr_4.c **** 
  33:Generated_Source\PSoC5/isr_4.c **** /* `#END` */
  34:Generated_Source\PSoC5/isr_4.c **** 
  35:Generated_Source\PSoC5/isr_4.c **** #ifndef CYINT_IRQ_BASE
  36:Generated_Source\PSoC5/isr_4.c **** #define CYINT_IRQ_BASE      16
  37:Generated_Source\PSoC5/isr_4.c **** #endif /* CYINT_IRQ_BASE */
  38:Generated_Source\PSoC5/isr_4.c **** #ifndef CYINT_VECT_TABLE
  39:Generated_Source\PSoC5/isr_4.c **** #define CYINT_VECT_TABLE    ((cyisraddress **) CYREG_NVIC_VECT_OFFSET)
  40:Generated_Source\PSoC5/isr_4.c **** #endif /* CYINT_VECT_TABLE */
  41:Generated_Source\PSoC5/isr_4.c **** 
  42:Generated_Source\PSoC5/isr_4.c **** /* Declared in startup, used to set unused interrupts to. */
  43:Generated_Source\PSoC5/isr_4.c **** CY_ISR_PROTO(IntDefaultHandler);
  44:Generated_Source\PSoC5/isr_4.c **** 
  45:Generated_Source\PSoC5/isr_4.c **** 
  46:Generated_Source\PSoC5/isr_4.c **** /*******************************************************************************
  47:Generated_Source\PSoC5/isr_4.c **** * Function Name: isr_4_Start
  48:Generated_Source\PSoC5/isr_4.c **** ********************************************************************************
  49:Generated_Source\PSoC5/isr_4.c **** *
  50:Generated_Source\PSoC5/isr_4.c **** * Summary:
  51:Generated_Source\PSoC5/isr_4.c **** *  Set up the interrupt and enable it. This function disables the interrupt, 
  52:Generated_Source\PSoC5/isr_4.c **** *  sets the default interrupt vector, sets the priority from the value in the
  53:Generated_Source\PSoC5/isr_4.c **** *  Design Wide Resources Interrupt Editor, then enables the interrupt to the 
  54:Generated_Source\PSoC5/isr_4.c **** *  interrupt controller.
  55:Generated_Source\PSoC5/isr_4.c **** *
  56:Generated_Source\PSoC5/isr_4.c **** * Parameters:  
  57:Generated_Source\PSoC5/isr_4.c **** *   None
  58:Generated_Source\PSoC5/isr_4.c **** *
  59:Generated_Source\PSoC5/isr_4.c **** * Return:
  60:Generated_Source\PSoC5/isr_4.c **** *   None
  61:Generated_Source\PSoC5/isr_4.c **** *
  62:Generated_Source\PSoC5/isr_4.c **** *******************************************************************************/
  63:Generated_Source\PSoC5/isr_4.c **** void isr_4_Start(void)
  64:Generated_Source\PSoC5/isr_4.c **** {
  65:Generated_Source\PSoC5/isr_4.c ****     /* For all we know the interrupt is active. */
  66:Generated_Source\PSoC5/isr_4.c ****     isr_4_Disable();
  67:Generated_Source\PSoC5/isr_4.c **** 
  68:Generated_Source\PSoC5/isr_4.c ****     /* Set the ISR to point to the isr_4 Interrupt. */
  69:Generated_Source\PSoC5/isr_4.c ****     isr_4_SetVector(&isr_4_Interrupt);
  70:Generated_Source\PSoC5/isr_4.c **** 
  71:Generated_Source\PSoC5/isr_4.c ****     /* Set the priority. */
  72:Generated_Source\PSoC5/isr_4.c ****     isr_4_SetPriority((uint8)isr_4_INTC_PRIOR_NUMBER);
  73:Generated_Source\PSoC5/isr_4.c **** 
  74:Generated_Source\PSoC5/isr_4.c ****     /* Enable it. */
  75:Generated_Source\PSoC5/isr_4.c ****     isr_4_Enable();
  76:Generated_Source\PSoC5/isr_4.c **** }
  77:Generated_Source\PSoC5/isr_4.c **** 
  78:Generated_Source\PSoC5/isr_4.c **** 
  79:Generated_Source\PSoC5/isr_4.c **** /*******************************************************************************
  80:Generated_Source\PSoC5/isr_4.c **** * Function Name: isr_4_StartEx
  81:Generated_Source\PSoC5/isr_4.c **** ********************************************************************************
  82:Generated_Source\PSoC5/isr_4.c **** *
  83:Generated_Source\PSoC5/isr_4.c **** * Summary:
  84:Generated_Source\PSoC5/isr_4.c **** *  Sets up the interrupt and enables it. This function disables the interrupt,
  85:Generated_Source\PSoC5/isr_4.c **** *  sets the interrupt vector based on the address passed in, sets the priority 
  86:Generated_Source\PSoC5/isr_4.c **** *  from the value in the Design Wide Resources Interrupt Editor, then enables 
  87:Generated_Source\PSoC5/isr_4.c **** *  the interrupt to the interrupt controller.
ARM GAS  C:\Users\sinow\AppData\Local\Temp\ccxT5mml.s 			page 3


  88:Generated_Source\PSoC5/isr_4.c **** *  
  89:Generated_Source\PSoC5/isr_4.c **** *  When defining ISR functions, the CY_ISR and CY_ISR_PROTO macros should be 
  90:Generated_Source\PSoC5/isr_4.c **** *  used to provide consistent definition across compilers:
  91:Generated_Source\PSoC5/isr_4.c **** *  
  92:Generated_Source\PSoC5/isr_4.c **** *  Function definition example:
  93:Generated_Source\PSoC5/isr_4.c **** *   CY_ISR(MyISR)
  94:Generated_Source\PSoC5/isr_4.c **** *   {
  95:Generated_Source\PSoC5/isr_4.c **** *   }
  96:Generated_Source\PSoC5/isr_4.c **** *   Function prototype example:
  97:Generated_Source\PSoC5/isr_4.c **** *   CY_ISR_PROTO(MyISR);
  98:Generated_Source\PSoC5/isr_4.c **** *
  99:Generated_Source\PSoC5/isr_4.c **** * Parameters:  
 100:Generated_Source\PSoC5/isr_4.c **** *   address: Address of the ISR to set in the interrupt vector table.
 101:Generated_Source\PSoC5/isr_4.c **** *
 102:Generated_Source\PSoC5/isr_4.c **** * Return:
 103:Generated_Source\PSoC5/isr_4.c **** *   None
 104:Generated_Source\PSoC5/isr_4.c **** *
 105:Generated_Source\PSoC5/isr_4.c **** *******************************************************************************/
 106:Generated_Source\PSoC5/isr_4.c **** void isr_4_StartEx(cyisraddress address)
 107:Generated_Source\PSoC5/isr_4.c **** {
 108:Generated_Source\PSoC5/isr_4.c ****     /* For all we know the interrupt is active. */
 109:Generated_Source\PSoC5/isr_4.c ****     isr_4_Disable();
 110:Generated_Source\PSoC5/isr_4.c **** 
 111:Generated_Source\PSoC5/isr_4.c ****     /* Set the ISR to point to the isr_4 Interrupt. */
 112:Generated_Source\PSoC5/isr_4.c ****     isr_4_SetVector(address);
 113:Generated_Source\PSoC5/isr_4.c **** 
 114:Generated_Source\PSoC5/isr_4.c ****     /* Set the priority. */
 115:Generated_Source\PSoC5/isr_4.c ****     isr_4_SetPriority((uint8)isr_4_INTC_PRIOR_NUMBER);
 116:Generated_Source\PSoC5/isr_4.c **** 
 117:Generated_Source\PSoC5/isr_4.c ****     /* Enable it. */
 118:Generated_Source\PSoC5/isr_4.c ****     isr_4_Enable();
 119:Generated_Source\PSoC5/isr_4.c **** }
 120:Generated_Source\PSoC5/isr_4.c **** 
 121:Generated_Source\PSoC5/isr_4.c **** 
 122:Generated_Source\PSoC5/isr_4.c **** /*******************************************************************************
 123:Generated_Source\PSoC5/isr_4.c **** * Function Name: isr_4_Stop
 124:Generated_Source\PSoC5/isr_4.c **** ********************************************************************************
 125:Generated_Source\PSoC5/isr_4.c **** *
 126:Generated_Source\PSoC5/isr_4.c **** * Summary:
 127:Generated_Source\PSoC5/isr_4.c **** *   Disables and removes the interrupt.
 128:Generated_Source\PSoC5/isr_4.c **** *
 129:Generated_Source\PSoC5/isr_4.c **** * Parameters:  
 130:Generated_Source\PSoC5/isr_4.c **** *   None
 131:Generated_Source\PSoC5/isr_4.c **** *
 132:Generated_Source\PSoC5/isr_4.c **** * Return:
 133:Generated_Source\PSoC5/isr_4.c **** *   None
 134:Generated_Source\PSoC5/isr_4.c **** *
 135:Generated_Source\PSoC5/isr_4.c **** *******************************************************************************/
 136:Generated_Source\PSoC5/isr_4.c **** void isr_4_Stop(void)
 137:Generated_Source\PSoC5/isr_4.c **** {
 138:Generated_Source\PSoC5/isr_4.c ****     /* Disable this interrupt. */
 139:Generated_Source\PSoC5/isr_4.c ****     isr_4_Disable();
 140:Generated_Source\PSoC5/isr_4.c **** 
 141:Generated_Source\PSoC5/isr_4.c ****     /* Set the ISR to point to the passive one. */
 142:Generated_Source\PSoC5/isr_4.c ****     isr_4_SetVector(&IntDefaultHandler);
 143:Generated_Source\PSoC5/isr_4.c **** }
 144:Generated_Source\PSoC5/isr_4.c **** 
ARM GAS  C:\Users\sinow\AppData\Local\Temp\ccxT5mml.s 			page 4


 145:Generated_Source\PSoC5/isr_4.c **** 
 146:Generated_Source\PSoC5/isr_4.c **** /*******************************************************************************
 147:Generated_Source\PSoC5/isr_4.c **** * Function Name: isr_4_Interrupt
 148:Generated_Source\PSoC5/isr_4.c **** ********************************************************************************
 149:Generated_Source\PSoC5/isr_4.c **** *
 150:Generated_Source\PSoC5/isr_4.c **** * Summary:
 151:Generated_Source\PSoC5/isr_4.c **** *   The default Interrupt Service Routine for isr_4.
 152:Generated_Source\PSoC5/isr_4.c **** *
 153:Generated_Source\PSoC5/isr_4.c **** *   Add custom code between the coments to keep the next version of this file
 154:Generated_Source\PSoC5/isr_4.c **** *   from over writting your code.
 155:Generated_Source\PSoC5/isr_4.c **** *
 156:Generated_Source\PSoC5/isr_4.c **** * Parameters:  
 157:Generated_Source\PSoC5/isr_4.c **** *
 158:Generated_Source\PSoC5/isr_4.c **** * Return:
 159:Generated_Source\PSoC5/isr_4.c **** *   None
 160:Generated_Source\PSoC5/isr_4.c **** *
 161:Generated_Source\PSoC5/isr_4.c **** *******************************************************************************/
 162:Generated_Source\PSoC5/isr_4.c **** CY_ISR(isr_4_Interrupt)
 163:Generated_Source\PSoC5/isr_4.c **** {
  28              		.loc 1 163 0
  29              		.cfi_startproc
  30              		@ args = 0, pretend = 0, frame = 32
  31              		@ frame_needed = 0, uses_anonymous_args = 0
  32 0000 00B5     		push	{lr}
  33              		.cfi_def_cfa_offset 4
  34              		.cfi_offset 14, -4
  35 0002 89B0     		sub	sp, sp, #36
  36              		.cfi_def_cfa_offset 40
 164:Generated_Source\PSoC5/isr_4.c ****     #ifdef isr_4_INTERRUPT_INTERRUPT_CALLBACK
 165:Generated_Source\PSoC5/isr_4.c ****         isr_4_Interrupt_InterruptCallback();
 166:Generated_Source\PSoC5/isr_4.c ****     #endif /* isr_4_INTERRUPT_INTERRUPT_CALLBACK */ 
 167:Generated_Source\PSoC5/isr_4.c **** 
 168:Generated_Source\PSoC5/isr_4.c ****     /*  Place your Interrupt code here. */
 169:Generated_Source\PSoC5/isr_4.c ****     /* `#START isr_4_Interrupt` */
 170:Generated_Source\PSoC5/isr_4.c ****     
 171:Generated_Source\PSoC5/isr_4.c ****     char msg[32];
 172:Generated_Source\PSoC5/isr_4.c ****     
 173:Generated_Source\PSoC5/isr_4.c ****     sprintf(msg, "Bop It!\r\n");
  37              		.loc 1 173 0
  38 0004 064A     		ldr	r2, .L3
  39 0006 6B46     		mov	r3, sp
  40 0008 07CA     		ldmia	r2, {r0, r1, r2}
  41 000a 03C3     		stmia	r3!, {r0, r1}
  42 000c 1A80     		strh	r2, [r3]	@ movhi
 174:Generated_Source\PSoC5/isr_4.c ****     UART_PutString(msg);
  43              		.loc 1 174 0
  44 000e 6846     		mov	r0, sp
  45 0010 FFF7FEFF 		bl	UART_PutString
  46              	.LVL0:
 175:Generated_Source\PSoC5/isr_4.c ****     Timer_4_ReadStatusRegister();
  47              		.loc 1 175 0
  48 0014 FFF7FEFF 		bl	Timer_4_ReadStatusRegister
  49              	.LVL1:
 176:Generated_Source\PSoC5/isr_4.c **** 
 177:Generated_Source\PSoC5/isr_4.c ****     /* `#END` */
 178:Generated_Source\PSoC5/isr_4.c **** }
  50              		.loc 1 178 0
ARM GAS  C:\Users\sinow\AppData\Local\Temp\ccxT5mml.s 			page 5


  51 0018 09B0     		add	sp, sp, #36
  52              		.cfi_def_cfa_offset 4
  53              		@ sp needed
  54 001a 5DF804FB 		ldr	pc, [sp], #4
  55              	.L4:
  56 001e 00BF     		.align	2
  57              	.L3:
  58 0020 00000000 		.word	.LC0
  59              		.cfi_endproc
  60              	.LFE67:
  61              		.size	isr_4_Interrupt, .-isr_4_Interrupt
  62              		.section	.text.isr_4_SetVector,"ax",%progbits
  63              		.align	2
  64              		.global	isr_4_SetVector
  65              		.thumb
  66              		.thumb_func
  67              		.type	isr_4_SetVector, %function
  68              	isr_4_SetVector:
  69              	.LFB68:
 179:Generated_Source\PSoC5/isr_4.c **** 
 180:Generated_Source\PSoC5/isr_4.c **** 
 181:Generated_Source\PSoC5/isr_4.c **** /*******************************************************************************
 182:Generated_Source\PSoC5/isr_4.c **** * Function Name: isr_4_SetVector
 183:Generated_Source\PSoC5/isr_4.c **** ********************************************************************************
 184:Generated_Source\PSoC5/isr_4.c **** *
 185:Generated_Source\PSoC5/isr_4.c **** * Summary:
 186:Generated_Source\PSoC5/isr_4.c **** *   Change the ISR vector for the Interrupt. Note calling isr_4_Start
 187:Generated_Source\PSoC5/isr_4.c **** *   will override any effect this method would have had. To set the vector 
 188:Generated_Source\PSoC5/isr_4.c **** *   before the component has been started use isr_4_StartEx instead.
 189:Generated_Source\PSoC5/isr_4.c **** * 
 190:Generated_Source\PSoC5/isr_4.c **** *   When defining ISR functions, the CY_ISR and CY_ISR_PROTO macros should be 
 191:Generated_Source\PSoC5/isr_4.c **** *   used to provide consistent definition across compilers:
 192:Generated_Source\PSoC5/isr_4.c **** *
 193:Generated_Source\PSoC5/isr_4.c **** *   Function definition example:
 194:Generated_Source\PSoC5/isr_4.c **** *   CY_ISR(MyISR)
 195:Generated_Source\PSoC5/isr_4.c **** *   {
 196:Generated_Source\PSoC5/isr_4.c **** *   }
 197:Generated_Source\PSoC5/isr_4.c **** *
 198:Generated_Source\PSoC5/isr_4.c **** *   Function prototype example:
 199:Generated_Source\PSoC5/isr_4.c **** *     CY_ISR_PROTO(MyISR);
 200:Generated_Source\PSoC5/isr_4.c **** *
 201:Generated_Source\PSoC5/isr_4.c **** * Parameters:
 202:Generated_Source\PSoC5/isr_4.c **** *   address: Address of the ISR to set in the interrupt vector table.
 203:Generated_Source\PSoC5/isr_4.c **** *
 204:Generated_Source\PSoC5/isr_4.c **** * Return:
 205:Generated_Source\PSoC5/isr_4.c **** *   None
 206:Generated_Source\PSoC5/isr_4.c **** *
 207:Generated_Source\PSoC5/isr_4.c **** *******************************************************************************/
 208:Generated_Source\PSoC5/isr_4.c **** void isr_4_SetVector(cyisraddress address)
 209:Generated_Source\PSoC5/isr_4.c **** {
  70              		.loc 1 209 0
  71              		.cfi_startproc
  72              		@ args = 0, pretend = 0, frame = 0
  73              		@ frame_needed = 0, uses_anonymous_args = 0
  74              		@ link register save eliminated.
  75              	.LVL2:
 210:Generated_Source\PSoC5/isr_4.c ****     cyisraddress * ramVectorTable;
ARM GAS  C:\Users\sinow\AppData\Local\Temp\ccxT5mml.s 			page 6


 211:Generated_Source\PSoC5/isr_4.c **** 
 212:Generated_Source\PSoC5/isr_4.c ****     ramVectorTable = (cyisraddress *) *CYINT_VECT_TABLE;
  76              		.loc 1 212 0
  77 0000 014B     		ldr	r3, .L6
  78 0002 1B68     		ldr	r3, [r3]
  79              	.LVL3:
 213:Generated_Source\PSoC5/isr_4.c **** 
 214:Generated_Source\PSoC5/isr_4.c ****     ramVectorTable[CYINT_IRQ_BASE + (uint32)isr_4__INTC_NUMBER] = address;
  80              		.loc 1 214 0
  81 0004 D864     		str	r0, [r3, #76]
  82 0006 7047     		bx	lr
  83              	.L7:
  84              		.align	2
  85              	.L6:
  86 0008 08ED00E0 		.word	-536810232
  87              		.cfi_endproc
  88              	.LFE68:
  89              		.size	isr_4_SetVector, .-isr_4_SetVector
  90              		.section	.text.isr_4_GetVector,"ax",%progbits
  91              		.align	2
  92              		.global	isr_4_GetVector
  93              		.thumb
  94              		.thumb_func
  95              		.type	isr_4_GetVector, %function
  96              	isr_4_GetVector:
  97              	.LFB69:
 215:Generated_Source\PSoC5/isr_4.c **** }
 216:Generated_Source\PSoC5/isr_4.c **** 
 217:Generated_Source\PSoC5/isr_4.c **** 
 218:Generated_Source\PSoC5/isr_4.c **** /*******************************************************************************
 219:Generated_Source\PSoC5/isr_4.c **** * Function Name: isr_4_GetVector
 220:Generated_Source\PSoC5/isr_4.c **** ********************************************************************************
 221:Generated_Source\PSoC5/isr_4.c **** *
 222:Generated_Source\PSoC5/isr_4.c **** * Summary:
 223:Generated_Source\PSoC5/isr_4.c **** *   Gets the "address" of the current ISR vector for the Interrupt.
 224:Generated_Source\PSoC5/isr_4.c **** *
 225:Generated_Source\PSoC5/isr_4.c **** * Parameters:
 226:Generated_Source\PSoC5/isr_4.c **** *   None
 227:Generated_Source\PSoC5/isr_4.c **** *
 228:Generated_Source\PSoC5/isr_4.c **** * Return:
 229:Generated_Source\PSoC5/isr_4.c **** *   Address of the ISR in the interrupt vector table.
 230:Generated_Source\PSoC5/isr_4.c **** *
 231:Generated_Source\PSoC5/isr_4.c **** *******************************************************************************/
 232:Generated_Source\PSoC5/isr_4.c **** cyisraddress isr_4_GetVector(void)
 233:Generated_Source\PSoC5/isr_4.c **** {
  98              		.loc 1 233 0
  99              		.cfi_startproc
 100              		@ args = 0, pretend = 0, frame = 0
 101              		@ frame_needed = 0, uses_anonymous_args = 0
 102              		@ link register save eliminated.
 234:Generated_Source\PSoC5/isr_4.c ****     cyisraddress * ramVectorTable;
 235:Generated_Source\PSoC5/isr_4.c **** 
 236:Generated_Source\PSoC5/isr_4.c ****     ramVectorTable = (cyisraddress *) *CYINT_VECT_TABLE;
 103              		.loc 1 236 0
 104 0000 014B     		ldr	r3, .L9
 105 0002 1B68     		ldr	r3, [r3]
 106              	.LVL4:
ARM GAS  C:\Users\sinow\AppData\Local\Temp\ccxT5mml.s 			page 7


 237:Generated_Source\PSoC5/isr_4.c **** 
 238:Generated_Source\PSoC5/isr_4.c ****     return ramVectorTable[CYINT_IRQ_BASE + (uint32)isr_4__INTC_NUMBER];
 239:Generated_Source\PSoC5/isr_4.c **** }
 107              		.loc 1 239 0
 108 0004 D86C     		ldr	r0, [r3, #76]
 109 0006 7047     		bx	lr
 110              	.L10:
 111              		.align	2
 112              	.L9:
 113 0008 08ED00E0 		.word	-536810232
 114              		.cfi_endproc
 115              	.LFE69:
 116              		.size	isr_4_GetVector, .-isr_4_GetVector
 117              		.section	.text.isr_4_SetPriority,"ax",%progbits
 118              		.align	2
 119              		.global	isr_4_SetPriority
 120              		.thumb
 121              		.thumb_func
 122              		.type	isr_4_SetPriority, %function
 123              	isr_4_SetPriority:
 124              	.LFB70:
 240:Generated_Source\PSoC5/isr_4.c **** 
 241:Generated_Source\PSoC5/isr_4.c **** 
 242:Generated_Source\PSoC5/isr_4.c **** /*******************************************************************************
 243:Generated_Source\PSoC5/isr_4.c **** * Function Name: isr_4_SetPriority
 244:Generated_Source\PSoC5/isr_4.c **** ********************************************************************************
 245:Generated_Source\PSoC5/isr_4.c **** *
 246:Generated_Source\PSoC5/isr_4.c **** * Summary:
 247:Generated_Source\PSoC5/isr_4.c **** *   Sets the Priority of the Interrupt. 
 248:Generated_Source\PSoC5/isr_4.c **** *
 249:Generated_Source\PSoC5/isr_4.c **** *   Note calling isr_4_Start or isr_4_StartEx will 
 250:Generated_Source\PSoC5/isr_4.c **** *   override any effect this API would have had. This API should only be called
 251:Generated_Source\PSoC5/isr_4.c **** *   after isr_4_Start or isr_4_StartEx has been called. 
 252:Generated_Source\PSoC5/isr_4.c **** *   To set the initial priority for the component, use the Design-Wide Resources
 253:Generated_Source\PSoC5/isr_4.c **** *   Interrupt Editor.
 254:Generated_Source\PSoC5/isr_4.c **** *
 255:Generated_Source\PSoC5/isr_4.c **** *   Note This API has no effect on Non-maskable interrupt NMI).
 256:Generated_Source\PSoC5/isr_4.c **** *
 257:Generated_Source\PSoC5/isr_4.c **** * Parameters:
 258:Generated_Source\PSoC5/isr_4.c **** *   priority: Priority of the interrupt, 0 being the highest priority
 259:Generated_Source\PSoC5/isr_4.c **** *             PSoC 3 and PSoC 5LP: Priority is from 0 to 7.
 260:Generated_Source\PSoC5/isr_4.c **** *             PSoC 4: Priority is from 0 to 3.
 261:Generated_Source\PSoC5/isr_4.c **** *
 262:Generated_Source\PSoC5/isr_4.c **** * Return:
 263:Generated_Source\PSoC5/isr_4.c **** *   None
 264:Generated_Source\PSoC5/isr_4.c **** *
 265:Generated_Source\PSoC5/isr_4.c **** *******************************************************************************/
 266:Generated_Source\PSoC5/isr_4.c **** void isr_4_SetPriority(uint8 priority)
 267:Generated_Source\PSoC5/isr_4.c **** {
 125              		.loc 1 267 0
 126              		.cfi_startproc
 127              		@ args = 0, pretend = 0, frame = 0
 128              		@ frame_needed = 0, uses_anonymous_args = 0
 129              		@ link register save eliminated.
 130              	.LVL5:
 268:Generated_Source\PSoC5/isr_4.c ****     *isr_4_INTC_PRIOR = priority << 5;
 131              		.loc 1 268 0
ARM GAS  C:\Users\sinow\AppData\Local\Temp\ccxT5mml.s 			page 8


 132 0000 4001     		lsls	r0, r0, #5
 133              	.LVL6:
 134 0002 C0B2     		uxtb	r0, r0
 135 0004 014B     		ldr	r3, .L12
 136 0006 1870     		strb	r0, [r3]
 137 0008 7047     		bx	lr
 138              	.L13:
 139 000a 00BF     		.align	2
 140              	.L12:
 141 000c 03E400E0 		.word	-536812541
 142              		.cfi_endproc
 143              	.LFE70:
 144              		.size	isr_4_SetPriority, .-isr_4_SetPriority
 145              		.section	.text.isr_4_GetPriority,"ax",%progbits
 146              		.align	2
 147              		.global	isr_4_GetPriority
 148              		.thumb
 149              		.thumb_func
 150              		.type	isr_4_GetPriority, %function
 151              	isr_4_GetPriority:
 152              	.LFB71:
 269:Generated_Source\PSoC5/isr_4.c **** }
 270:Generated_Source\PSoC5/isr_4.c **** 
 271:Generated_Source\PSoC5/isr_4.c **** 
 272:Generated_Source\PSoC5/isr_4.c **** /*******************************************************************************
 273:Generated_Source\PSoC5/isr_4.c **** * Function Name: isr_4_GetPriority
 274:Generated_Source\PSoC5/isr_4.c **** ********************************************************************************
 275:Generated_Source\PSoC5/isr_4.c **** *
 276:Generated_Source\PSoC5/isr_4.c **** * Summary:
 277:Generated_Source\PSoC5/isr_4.c **** *   Gets the Priority of the Interrupt.
 278:Generated_Source\PSoC5/isr_4.c **** *
 279:Generated_Source\PSoC5/isr_4.c **** * Parameters:
 280:Generated_Source\PSoC5/isr_4.c **** *   None
 281:Generated_Source\PSoC5/isr_4.c **** *
 282:Generated_Source\PSoC5/isr_4.c **** * Return:
 283:Generated_Source\PSoC5/isr_4.c **** *   Priority of the interrupt, 0 being the highest priority
 284:Generated_Source\PSoC5/isr_4.c **** *    PSoC 3 and PSoC 5LP: Priority is from 0 to 7.
 285:Generated_Source\PSoC5/isr_4.c **** *    PSoC 4: Priority is from 0 to 3.
 286:Generated_Source\PSoC5/isr_4.c **** *
 287:Generated_Source\PSoC5/isr_4.c **** *******************************************************************************/
 288:Generated_Source\PSoC5/isr_4.c **** uint8 isr_4_GetPriority(void)
 289:Generated_Source\PSoC5/isr_4.c **** {
 153              		.loc 1 289 0
 154              		.cfi_startproc
 155              		@ args = 0, pretend = 0, frame = 0
 156              		@ frame_needed = 0, uses_anonymous_args = 0
 157              		@ link register save eliminated.
 290:Generated_Source\PSoC5/isr_4.c ****     uint8 priority;
 291:Generated_Source\PSoC5/isr_4.c **** 
 292:Generated_Source\PSoC5/isr_4.c **** 
 293:Generated_Source\PSoC5/isr_4.c ****     priority = *isr_4_INTC_PRIOR >> 5;
 158              		.loc 1 293 0
 159 0000 014B     		ldr	r3, .L15
 160 0002 1878     		ldrb	r0, [r3]	@ zero_extendqisi2
 161              	.LVL7:
 294:Generated_Source\PSoC5/isr_4.c **** 
 295:Generated_Source\PSoC5/isr_4.c ****     return priority;
ARM GAS  C:\Users\sinow\AppData\Local\Temp\ccxT5mml.s 			page 9


 296:Generated_Source\PSoC5/isr_4.c **** }
 162              		.loc 1 296 0
 163 0004 4009     		lsrs	r0, r0, #5
 164              	.LVL8:
 165 0006 7047     		bx	lr
 166              	.L16:
 167              		.align	2
 168              	.L15:
 169 0008 03E400E0 		.word	-536812541
 170              		.cfi_endproc
 171              	.LFE71:
 172              		.size	isr_4_GetPriority, .-isr_4_GetPriority
 173              		.section	.text.isr_4_Enable,"ax",%progbits
 174              		.align	2
 175              		.global	isr_4_Enable
 176              		.thumb
 177              		.thumb_func
 178              		.type	isr_4_Enable, %function
 179              	isr_4_Enable:
 180              	.LFB72:
 297:Generated_Source\PSoC5/isr_4.c **** 
 298:Generated_Source\PSoC5/isr_4.c **** 
 299:Generated_Source\PSoC5/isr_4.c **** /*******************************************************************************
 300:Generated_Source\PSoC5/isr_4.c **** * Function Name: isr_4_Enable
 301:Generated_Source\PSoC5/isr_4.c **** ********************************************************************************
 302:Generated_Source\PSoC5/isr_4.c **** *
 303:Generated_Source\PSoC5/isr_4.c **** * Summary:
 304:Generated_Source\PSoC5/isr_4.c **** *   Enables the interrupt to the interrupt controller. Do not call this function
 305:Generated_Source\PSoC5/isr_4.c **** *   unless ISR_Start() has been called or the functionality of the ISR_Start() 
 306:Generated_Source\PSoC5/isr_4.c **** *   function, which sets the vector and the priority, has been called.
 307:Generated_Source\PSoC5/isr_4.c **** *
 308:Generated_Source\PSoC5/isr_4.c **** * Parameters:
 309:Generated_Source\PSoC5/isr_4.c **** *   None
 310:Generated_Source\PSoC5/isr_4.c **** *
 311:Generated_Source\PSoC5/isr_4.c **** * Return:
 312:Generated_Source\PSoC5/isr_4.c **** *   None
 313:Generated_Source\PSoC5/isr_4.c **** *
 314:Generated_Source\PSoC5/isr_4.c **** *******************************************************************************/
 315:Generated_Source\PSoC5/isr_4.c **** void isr_4_Enable(void)
 316:Generated_Source\PSoC5/isr_4.c **** {
 181              		.loc 1 316 0
 182              		.cfi_startproc
 183              		@ args = 0, pretend = 0, frame = 0
 184              		@ frame_needed = 0, uses_anonymous_args = 0
 185              		@ link register save eliminated.
 317:Generated_Source\PSoC5/isr_4.c ****     /* Enable the general interrupt. */
 318:Generated_Source\PSoC5/isr_4.c ****     *isr_4_INTC_SET_EN = isr_4__INTC_MASK;
 186              		.loc 1 318 0
 187 0000 0822     		movs	r2, #8
 188 0002 014B     		ldr	r3, .L18
 189 0004 1A60     		str	r2, [r3]
 190 0006 7047     		bx	lr
 191              	.L19:
 192              		.align	2
 193              	.L18:
 194 0008 00E100E0 		.word	-536813312
 195              		.cfi_endproc
ARM GAS  C:\Users\sinow\AppData\Local\Temp\ccxT5mml.s 			page 10


 196              	.LFE72:
 197              		.size	isr_4_Enable, .-isr_4_Enable
 198              		.section	.text.isr_4_GetState,"ax",%progbits
 199              		.align	2
 200              		.global	isr_4_GetState
 201              		.thumb
 202              		.thumb_func
 203              		.type	isr_4_GetState, %function
 204              	isr_4_GetState:
 205              	.LFB73:
 319:Generated_Source\PSoC5/isr_4.c **** }
 320:Generated_Source\PSoC5/isr_4.c **** 
 321:Generated_Source\PSoC5/isr_4.c **** 
 322:Generated_Source\PSoC5/isr_4.c **** /*******************************************************************************
 323:Generated_Source\PSoC5/isr_4.c **** * Function Name: isr_4_GetState
 324:Generated_Source\PSoC5/isr_4.c **** ********************************************************************************
 325:Generated_Source\PSoC5/isr_4.c **** *
 326:Generated_Source\PSoC5/isr_4.c **** * Summary:
 327:Generated_Source\PSoC5/isr_4.c **** *   Gets the state (enabled, disabled) of the Interrupt.
 328:Generated_Source\PSoC5/isr_4.c **** *
 329:Generated_Source\PSoC5/isr_4.c **** * Parameters:
 330:Generated_Source\PSoC5/isr_4.c **** *   None
 331:Generated_Source\PSoC5/isr_4.c **** *
 332:Generated_Source\PSoC5/isr_4.c **** * Return:
 333:Generated_Source\PSoC5/isr_4.c **** *   1 if enabled, 0 if disabled.
 334:Generated_Source\PSoC5/isr_4.c **** *
 335:Generated_Source\PSoC5/isr_4.c **** *******************************************************************************/
 336:Generated_Source\PSoC5/isr_4.c **** uint8 isr_4_GetState(void)
 337:Generated_Source\PSoC5/isr_4.c **** {
 206              		.loc 1 337 0
 207              		.cfi_startproc
 208              		@ args = 0, pretend = 0, frame = 0
 209              		@ frame_needed = 0, uses_anonymous_args = 0
 210              		@ link register save eliminated.
 338:Generated_Source\PSoC5/isr_4.c ****     /* Get the state of the general interrupt. */
 339:Generated_Source\PSoC5/isr_4.c ****     return ((*isr_4_INTC_SET_EN & (uint32)isr_4__INTC_MASK) != 0u) ? 1u:0u;
 211              		.loc 1 339 0
 212 0000 044B     		ldr	r3, .L23
 213 0002 1B68     		ldr	r3, [r3]
 214 0004 13F0080F 		tst	r3, #8
 215 0008 01D0     		beq	.L22
 216 000a 0120     		movs	r0, #1
 217 000c 7047     		bx	lr
 218              	.L22:
 219 000e 0020     		movs	r0, #0
 340:Generated_Source\PSoC5/isr_4.c **** }
 220              		.loc 1 340 0
 221 0010 7047     		bx	lr
 222              	.L24:
 223 0012 00BF     		.align	2
 224              	.L23:
 225 0014 00E100E0 		.word	-536813312
 226              		.cfi_endproc
 227              	.LFE73:
 228              		.size	isr_4_GetState, .-isr_4_GetState
 229              		.section	.text.isr_4_Disable,"ax",%progbits
 230              		.align	2
ARM GAS  C:\Users\sinow\AppData\Local\Temp\ccxT5mml.s 			page 11


 231              		.global	isr_4_Disable
 232              		.thumb
 233              		.thumb_func
 234              		.type	isr_4_Disable, %function
 235              	isr_4_Disable:
 236              	.LFB74:
 341:Generated_Source\PSoC5/isr_4.c **** 
 342:Generated_Source\PSoC5/isr_4.c **** 
 343:Generated_Source\PSoC5/isr_4.c **** /*******************************************************************************
 344:Generated_Source\PSoC5/isr_4.c **** * Function Name: isr_4_Disable
 345:Generated_Source\PSoC5/isr_4.c **** ********************************************************************************
 346:Generated_Source\PSoC5/isr_4.c **** *
 347:Generated_Source\PSoC5/isr_4.c **** * Summary:
 348:Generated_Source\PSoC5/isr_4.c **** *   Disables the Interrupt in the interrupt controller.
 349:Generated_Source\PSoC5/isr_4.c **** *
 350:Generated_Source\PSoC5/isr_4.c **** * Parameters:
 351:Generated_Source\PSoC5/isr_4.c **** *   None
 352:Generated_Source\PSoC5/isr_4.c **** *
 353:Generated_Source\PSoC5/isr_4.c **** * Return:
 354:Generated_Source\PSoC5/isr_4.c **** *   None
 355:Generated_Source\PSoC5/isr_4.c **** *
 356:Generated_Source\PSoC5/isr_4.c **** *******************************************************************************/
 357:Generated_Source\PSoC5/isr_4.c **** void isr_4_Disable(void)
 358:Generated_Source\PSoC5/isr_4.c **** {
 237              		.loc 1 358 0
 238              		.cfi_startproc
 239              		@ args = 0, pretend = 0, frame = 0
 240              		@ frame_needed = 0, uses_anonymous_args = 0
 241              		@ link register save eliminated.
 359:Generated_Source\PSoC5/isr_4.c ****     /* Disable the general interrupt. */
 360:Generated_Source\PSoC5/isr_4.c ****     *isr_4_INTC_CLR_EN = isr_4__INTC_MASK;
 242              		.loc 1 360 0
 243 0000 0822     		movs	r2, #8
 244 0002 014B     		ldr	r3, .L26
 245 0004 1A60     		str	r2, [r3]
 246 0006 7047     		bx	lr
 247              	.L27:
 248              		.align	2
 249              	.L26:
 250 0008 80E100E0 		.word	-536813184
 251              		.cfi_endproc
 252              	.LFE74:
 253              		.size	isr_4_Disable, .-isr_4_Disable
 254              		.section	.text.isr_4_Start,"ax",%progbits
 255              		.align	2
 256              		.global	isr_4_Start
 257              		.thumb
 258              		.thumb_func
 259              		.type	isr_4_Start, %function
 260              	isr_4_Start:
 261              	.LFB64:
  64:Generated_Source\PSoC5/isr_4.c ****     /* For all we know the interrupt is active. */
 262              		.loc 1 64 0
 263              		.cfi_startproc
 264              		@ args = 0, pretend = 0, frame = 0
 265              		@ frame_needed = 0, uses_anonymous_args = 0
 266 0000 08B5     		push	{r3, lr}
ARM GAS  C:\Users\sinow\AppData\Local\Temp\ccxT5mml.s 			page 12


 267              		.cfi_def_cfa_offset 8
 268              		.cfi_offset 3, -8
 269              		.cfi_offset 14, -4
  66:Generated_Source\PSoC5/isr_4.c **** 
 270              		.loc 1 66 0
 271 0002 FFF7FEFF 		bl	isr_4_Disable
 272              	.LVL9:
  69:Generated_Source\PSoC5/isr_4.c **** 
 273              		.loc 1 69 0
 274 0006 0448     		ldr	r0, .L30
 275 0008 FFF7FEFF 		bl	isr_4_SetVector
 276              	.LVL10:
  72:Generated_Source\PSoC5/isr_4.c **** 
 277              		.loc 1 72 0
 278 000c 0120     		movs	r0, #1
 279 000e FFF7FEFF 		bl	isr_4_SetPriority
 280              	.LVL11:
  75:Generated_Source\PSoC5/isr_4.c **** }
 281              		.loc 1 75 0
 282 0012 FFF7FEFF 		bl	isr_4_Enable
 283              	.LVL12:
 284 0016 08BD     		pop	{r3, pc}
 285              	.L31:
 286              		.align	2
 287              	.L30:
 288 0018 00000000 		.word	isr_4_Interrupt
 289              		.cfi_endproc
 290              	.LFE64:
 291              		.size	isr_4_Start, .-isr_4_Start
 292              		.section	.text.isr_4_StartEx,"ax",%progbits
 293              		.align	2
 294              		.global	isr_4_StartEx
 295              		.thumb
 296              		.thumb_func
 297              		.type	isr_4_StartEx, %function
 298              	isr_4_StartEx:
 299              	.LFB65:
 107:Generated_Source\PSoC5/isr_4.c ****     /* For all we know the interrupt is active. */
 300              		.loc 1 107 0
 301              		.cfi_startproc
 302              		@ args = 0, pretend = 0, frame = 0
 303              		@ frame_needed = 0, uses_anonymous_args = 0
 304              	.LVL13:
 305 0000 10B5     		push	{r4, lr}
 306              		.cfi_def_cfa_offset 8
 307              		.cfi_offset 4, -8
 308              		.cfi_offset 14, -4
 309 0002 0446     		mov	r4, r0
 109:Generated_Source\PSoC5/isr_4.c **** 
 310              		.loc 1 109 0
 311 0004 FFF7FEFF 		bl	isr_4_Disable
 312              	.LVL14:
 112:Generated_Source\PSoC5/isr_4.c **** 
 313              		.loc 1 112 0
 314 0008 2046     		mov	r0, r4
 315 000a FFF7FEFF 		bl	isr_4_SetVector
 316              	.LVL15:
ARM GAS  C:\Users\sinow\AppData\Local\Temp\ccxT5mml.s 			page 13


 115:Generated_Source\PSoC5/isr_4.c **** 
 317              		.loc 1 115 0
 318 000e 0120     		movs	r0, #1
 319 0010 FFF7FEFF 		bl	isr_4_SetPriority
 320              	.LVL16:
 118:Generated_Source\PSoC5/isr_4.c **** }
 321              		.loc 1 118 0
 322 0014 FFF7FEFF 		bl	isr_4_Enable
 323              	.LVL17:
 324 0018 10BD     		pop	{r4, pc}
 325              		.cfi_endproc
 326              	.LFE65:
 327              		.size	isr_4_StartEx, .-isr_4_StartEx
 328 001a 00BF     		.section	.text.isr_4_Stop,"ax",%progbits
 329              		.align	2
 330              		.global	isr_4_Stop
 331              		.thumb
 332              		.thumb_func
 333              		.type	isr_4_Stop, %function
 334              	isr_4_Stop:
 335              	.LFB66:
 137:Generated_Source\PSoC5/isr_4.c ****     /* Disable this interrupt. */
 336              		.loc 1 137 0
 337              		.cfi_startproc
 338              		@ args = 0, pretend = 0, frame = 0
 339              		@ frame_needed = 0, uses_anonymous_args = 0
 340 0000 08B5     		push	{r3, lr}
 341              		.cfi_def_cfa_offset 8
 342              		.cfi_offset 3, -8
 343              		.cfi_offset 14, -4
 139:Generated_Source\PSoC5/isr_4.c **** 
 344              		.loc 1 139 0
 345 0002 FFF7FEFF 		bl	isr_4_Disable
 346              	.LVL18:
 142:Generated_Source\PSoC5/isr_4.c **** }
 347              		.loc 1 142 0
 348 0006 0248     		ldr	r0, .L36
 349 0008 FFF7FEFF 		bl	isr_4_SetVector
 350              	.LVL19:
 351 000c 08BD     		pop	{r3, pc}
 352              	.L37:
 353 000e 00BF     		.align	2
 354              	.L36:
 355 0010 00000000 		.word	IntDefaultHandler
 356              		.cfi_endproc
 357              	.LFE66:
 358              		.size	isr_4_Stop, .-isr_4_Stop
 359              		.section	.text.isr_4_SetPending,"ax",%progbits
 360              		.align	2
 361              		.global	isr_4_SetPending
 362              		.thumb
 363              		.thumb_func
 364              		.type	isr_4_SetPending, %function
 365              	isr_4_SetPending:
 366              	.LFB75:
 361:Generated_Source\PSoC5/isr_4.c **** }
 362:Generated_Source\PSoC5/isr_4.c **** 
ARM GAS  C:\Users\sinow\AppData\Local\Temp\ccxT5mml.s 			page 14


 363:Generated_Source\PSoC5/isr_4.c **** 
 364:Generated_Source\PSoC5/isr_4.c **** /*******************************************************************************
 365:Generated_Source\PSoC5/isr_4.c **** * Function Name: isr_4_SetPending
 366:Generated_Source\PSoC5/isr_4.c **** ********************************************************************************
 367:Generated_Source\PSoC5/isr_4.c **** *
 368:Generated_Source\PSoC5/isr_4.c **** * Summary:
 369:Generated_Source\PSoC5/isr_4.c **** *   Causes the Interrupt to enter the pending state, a software method of
 370:Generated_Source\PSoC5/isr_4.c **** *   generating the interrupt.
 371:Generated_Source\PSoC5/isr_4.c **** *
 372:Generated_Source\PSoC5/isr_4.c **** * Parameters:
 373:Generated_Source\PSoC5/isr_4.c **** *   None
 374:Generated_Source\PSoC5/isr_4.c **** *
 375:Generated_Source\PSoC5/isr_4.c **** * Return:
 376:Generated_Source\PSoC5/isr_4.c **** *   None
 377:Generated_Source\PSoC5/isr_4.c **** *
 378:Generated_Source\PSoC5/isr_4.c **** * Side Effects:
 379:Generated_Source\PSoC5/isr_4.c **** *   If interrupts are enabled and the interrupt is set up properly, the ISR is
 380:Generated_Source\PSoC5/isr_4.c **** *   entered (depending on the priority of this interrupt and other pending 
 381:Generated_Source\PSoC5/isr_4.c **** *   interrupts).
 382:Generated_Source\PSoC5/isr_4.c **** *
 383:Generated_Source\PSoC5/isr_4.c **** *******************************************************************************/
 384:Generated_Source\PSoC5/isr_4.c **** void isr_4_SetPending(void)
 385:Generated_Source\PSoC5/isr_4.c **** {
 367              		.loc 1 385 0
 368              		.cfi_startproc
 369              		@ args = 0, pretend = 0, frame = 0
 370              		@ frame_needed = 0, uses_anonymous_args = 0
 371              		@ link register save eliminated.
 386:Generated_Source\PSoC5/isr_4.c ****     *isr_4_INTC_SET_PD = isr_4__INTC_MASK;
 372              		.loc 1 386 0
 373 0000 0822     		movs	r2, #8
 374 0002 014B     		ldr	r3, .L39
 375 0004 1A60     		str	r2, [r3]
 376 0006 7047     		bx	lr
 377              	.L40:
 378              		.align	2
 379              	.L39:
 380 0008 00E200E0 		.word	-536813056
 381              		.cfi_endproc
 382              	.LFE75:
 383              		.size	isr_4_SetPending, .-isr_4_SetPending
 384              		.section	.text.isr_4_ClearPending,"ax",%progbits
 385              		.align	2
 386              		.global	isr_4_ClearPending
 387              		.thumb
 388              		.thumb_func
 389              		.type	isr_4_ClearPending, %function
 390              	isr_4_ClearPending:
 391              	.LFB76:
 387:Generated_Source\PSoC5/isr_4.c **** }
 388:Generated_Source\PSoC5/isr_4.c **** 
 389:Generated_Source\PSoC5/isr_4.c **** 
 390:Generated_Source\PSoC5/isr_4.c **** /*******************************************************************************
 391:Generated_Source\PSoC5/isr_4.c **** * Function Name: isr_4_ClearPending
 392:Generated_Source\PSoC5/isr_4.c **** ********************************************************************************
 393:Generated_Source\PSoC5/isr_4.c **** *
 394:Generated_Source\PSoC5/isr_4.c **** * Summary:
ARM GAS  C:\Users\sinow\AppData\Local\Temp\ccxT5mml.s 			page 15


 395:Generated_Source\PSoC5/isr_4.c **** *   Clears a pending interrupt in the interrupt controller.
 396:Generated_Source\PSoC5/isr_4.c **** *
 397:Generated_Source\PSoC5/isr_4.c **** *   Note Some interrupt sources are clear-on-read and require the block 
 398:Generated_Source\PSoC5/isr_4.c **** *   interrupt/status register to be read/cleared with the appropriate block API 
 399:Generated_Source\PSoC5/isr_4.c **** *   (GPIO, UART, and so on). Otherwise the ISR will continue to remain in 
 400:Generated_Source\PSoC5/isr_4.c **** *   pending state even though the interrupt itself is cleared using this API.
 401:Generated_Source\PSoC5/isr_4.c **** *
 402:Generated_Source\PSoC5/isr_4.c **** * Parameters:
 403:Generated_Source\PSoC5/isr_4.c **** *   None
 404:Generated_Source\PSoC5/isr_4.c **** *
 405:Generated_Source\PSoC5/isr_4.c **** * Return:
 406:Generated_Source\PSoC5/isr_4.c **** *   None
 407:Generated_Source\PSoC5/isr_4.c **** *
 408:Generated_Source\PSoC5/isr_4.c **** *******************************************************************************/
 409:Generated_Source\PSoC5/isr_4.c **** void isr_4_ClearPending(void)
 410:Generated_Source\PSoC5/isr_4.c **** {
 392              		.loc 1 410 0
 393              		.cfi_startproc
 394              		@ args = 0, pretend = 0, frame = 0
 395              		@ frame_needed = 0, uses_anonymous_args = 0
 396              		@ link register save eliminated.
 411:Generated_Source\PSoC5/isr_4.c ****     *isr_4_INTC_CLR_PD = isr_4__INTC_MASK;
 397              		.loc 1 411 0
 398 0000 0822     		movs	r2, #8
 399 0002 014B     		ldr	r3, .L42
 400 0004 1A60     		str	r2, [r3]
 401 0006 7047     		bx	lr
 402              	.L43:
 403              		.align	2
 404              	.L42:
 405 0008 80E200E0 		.word	-536812928
 406              		.cfi_endproc
 407              	.LFE76:
 408              		.size	isr_4_ClearPending, .-isr_4_ClearPending
 409              		.section	.rodata.str1.4,"aMS",%progbits,1
 410              		.align	2
 411              	.LC0:
 412 0000 426F7020 		.ascii	"Bop It!\015\012\000"
 412      4974210D 
 412      0A00
 413              		.text
 414              	.Letext0:
 415              		.file 2 "c:\\program files (x86)\\cypress\\psoc creator\\4.2\\psoc creator\\import\\gnu\\arm\\5.4.
 416              		.file 3 "c:\\program files (x86)\\cypress\\psoc creator\\4.2\\psoc creator\\import\\gnu\\arm\\5.4.
 417              		.file 4 "Generated_Source\\PSoC5/cytypes.h"
 418              		.file 5 "Generated_Source\\PSoC5\\UART.h"
 419              		.file 6 "Generated_Source\\PSoC5\\Timer_4.h"
 420              		.file 7 "Generated_Source\\PSoC5/core_cm3.h"