ARM GAS  C:\Users\sinow\AppData\Local\Temp\ccR0Bdxf.s 			page 1


   1              		.syntax unified
   2              		.cpu cortex-m3
   3              		.fpu softvfp
   4              		.eabi_attribute 20, 1
   5              		.eabi_attribute 21, 1
   6              		.eabi_attribute 23, 3
   7              		.eabi_attribute 24, 1
   8              		.eabi_attribute 25, 1
   9              		.eabi_attribute 26, 1
  10              		.eabi_attribute 30, 1
  11              		.eabi_attribute 34, 1
  12              		.eabi_attribute 18, 4
  13              		.thumb
  14              		.syntax unified
  15              		.file	"isr_2.c"
  16              		.text
  17              	.Ltext0:
  18              		.cfi_sections	.debug_frame
  19              		.section	.text.isr_2_Interrupt,"ax",%progbits
  20              		.align	2
  21              		.global	isr_2_Interrupt
  22              		.thumb
  23              		.thumb_func
  24              		.type	isr_2_Interrupt, %function
  25              	isr_2_Interrupt:
  26              	.LFB67:
  27              		.file 1 "Generated_Source\\PSoC5\\isr_2.c"
   1:Generated_Source\PSoC5/isr_2.c **** /*******************************************************************************
   2:Generated_Source\PSoC5/isr_2.c **** * File Name: isr_2.c  
   3:Generated_Source\PSoC5/isr_2.c **** * Version 1.70
   4:Generated_Source\PSoC5/isr_2.c **** *
   5:Generated_Source\PSoC5/isr_2.c **** *  Description:
   6:Generated_Source\PSoC5/isr_2.c **** *   API for controlling the state of an interrupt.
   7:Generated_Source\PSoC5/isr_2.c **** *
   8:Generated_Source\PSoC5/isr_2.c **** *
   9:Generated_Source\PSoC5/isr_2.c **** *  Note:
  10:Generated_Source\PSoC5/isr_2.c **** *
  11:Generated_Source\PSoC5/isr_2.c **** ********************************************************************************
  12:Generated_Source\PSoC5/isr_2.c **** * Copyright 2008-2015, Cypress Semiconductor Corporation.  All rights reserved.
  13:Generated_Source\PSoC5/isr_2.c **** * You may use this file only in accordance with the license, terms, conditions, 
  14:Generated_Source\PSoC5/isr_2.c **** * disclaimers, and limitations in the end user license agreement accompanying 
  15:Generated_Source\PSoC5/isr_2.c **** * the software package with which this file was provided.
  16:Generated_Source\PSoC5/isr_2.c **** *******************************************************************************/
  17:Generated_Source\PSoC5/isr_2.c **** 
  18:Generated_Source\PSoC5/isr_2.c **** 
  19:Generated_Source\PSoC5/isr_2.c **** #include <cydevice_trm.h>
  20:Generated_Source\PSoC5/isr_2.c **** #include <CyLib.h>
  21:Generated_Source\PSoC5/isr_2.c **** #include <isr_2.h>
  22:Generated_Source\PSoC5/isr_2.c **** #include "cyapicallbacks.h"
  23:Generated_Source\PSoC5/isr_2.c **** 
  24:Generated_Source\PSoC5/isr_2.c **** #if !defined(isr_2__REMOVED) /* Check for removal by optimization */
  25:Generated_Source\PSoC5/isr_2.c **** 
  26:Generated_Source\PSoC5/isr_2.c **** /*******************************************************************************
  27:Generated_Source\PSoC5/isr_2.c **** *  Place your includes, defines and code here 
  28:Generated_Source\PSoC5/isr_2.c **** ********************************************************************************/
  29:Generated_Source\PSoC5/isr_2.c **** /* `#START isr_2_intc` */
  30:Generated_Source\PSoC5/isr_2.c ****     #include "project.h"
ARM GAS  C:\Users\sinow\AppData\Local\Temp\ccR0Bdxf.s 			page 2


  31:Generated_Source\PSoC5/isr_2.c ****     #include <stdio.h>
  32:Generated_Source\PSoC5/isr_2.c **** 
  33:Generated_Source\PSoC5/isr_2.c **** /* `#END` */
  34:Generated_Source\PSoC5/isr_2.c **** 
  35:Generated_Source\PSoC5/isr_2.c **** #ifndef CYINT_IRQ_BASE
  36:Generated_Source\PSoC5/isr_2.c **** #define CYINT_IRQ_BASE      16
  37:Generated_Source\PSoC5/isr_2.c **** #endif /* CYINT_IRQ_BASE */
  38:Generated_Source\PSoC5/isr_2.c **** #ifndef CYINT_VECT_TABLE
  39:Generated_Source\PSoC5/isr_2.c **** #define CYINT_VECT_TABLE    ((cyisraddress **) CYREG_NVIC_VECT_OFFSET)
  40:Generated_Source\PSoC5/isr_2.c **** #endif /* CYINT_VECT_TABLE */
  41:Generated_Source\PSoC5/isr_2.c **** 
  42:Generated_Source\PSoC5/isr_2.c **** /* Declared in startup, used to set unused interrupts to. */
  43:Generated_Source\PSoC5/isr_2.c **** CY_ISR_PROTO(IntDefaultHandler);
  44:Generated_Source\PSoC5/isr_2.c **** 
  45:Generated_Source\PSoC5/isr_2.c **** 
  46:Generated_Source\PSoC5/isr_2.c **** /*******************************************************************************
  47:Generated_Source\PSoC5/isr_2.c **** * Function Name: isr_2_Start
  48:Generated_Source\PSoC5/isr_2.c **** ********************************************************************************
  49:Generated_Source\PSoC5/isr_2.c **** *
  50:Generated_Source\PSoC5/isr_2.c **** * Summary:
  51:Generated_Source\PSoC5/isr_2.c **** *  Set up the interrupt and enable it. This function disables the interrupt, 
  52:Generated_Source\PSoC5/isr_2.c **** *  sets the default interrupt vector, sets the priority from the value in the
  53:Generated_Source\PSoC5/isr_2.c **** *  Design Wide Resources Interrupt Editor, then enables the interrupt to the 
  54:Generated_Source\PSoC5/isr_2.c **** *  interrupt controller.
  55:Generated_Source\PSoC5/isr_2.c **** *
  56:Generated_Source\PSoC5/isr_2.c **** * Parameters:  
  57:Generated_Source\PSoC5/isr_2.c **** *   None
  58:Generated_Source\PSoC5/isr_2.c **** *
  59:Generated_Source\PSoC5/isr_2.c **** * Return:
  60:Generated_Source\PSoC5/isr_2.c **** *   None
  61:Generated_Source\PSoC5/isr_2.c **** *
  62:Generated_Source\PSoC5/isr_2.c **** *******************************************************************************/
  63:Generated_Source\PSoC5/isr_2.c **** void isr_2_Start(void)
  64:Generated_Source\PSoC5/isr_2.c **** {
  65:Generated_Source\PSoC5/isr_2.c ****     /* For all we know the interrupt is active. */
  66:Generated_Source\PSoC5/isr_2.c ****     isr_2_Disable();
  67:Generated_Source\PSoC5/isr_2.c **** 
  68:Generated_Source\PSoC5/isr_2.c ****     /* Set the ISR to point to the isr_2 Interrupt. */
  69:Generated_Source\PSoC5/isr_2.c ****     isr_2_SetVector(&isr_2_Interrupt);
  70:Generated_Source\PSoC5/isr_2.c **** 
  71:Generated_Source\PSoC5/isr_2.c ****     /* Set the priority. */
  72:Generated_Source\PSoC5/isr_2.c ****     isr_2_SetPriority((uint8)isr_2_INTC_PRIOR_NUMBER);
  73:Generated_Source\PSoC5/isr_2.c **** 
  74:Generated_Source\PSoC5/isr_2.c ****     /* Enable it. */
  75:Generated_Source\PSoC5/isr_2.c ****     isr_2_Enable();
  76:Generated_Source\PSoC5/isr_2.c **** }
  77:Generated_Source\PSoC5/isr_2.c **** 
  78:Generated_Source\PSoC5/isr_2.c **** 
  79:Generated_Source\PSoC5/isr_2.c **** /*******************************************************************************
  80:Generated_Source\PSoC5/isr_2.c **** * Function Name: isr_2_StartEx
  81:Generated_Source\PSoC5/isr_2.c **** ********************************************************************************
  82:Generated_Source\PSoC5/isr_2.c **** *
  83:Generated_Source\PSoC5/isr_2.c **** * Summary:
  84:Generated_Source\PSoC5/isr_2.c **** *  Sets up the interrupt and enables it. This function disables the interrupt,
  85:Generated_Source\PSoC5/isr_2.c **** *  sets the interrupt vector based on the address passed in, sets the priority 
  86:Generated_Source\PSoC5/isr_2.c **** *  from the value in the Design Wide Resources Interrupt Editor, then enables 
  87:Generated_Source\PSoC5/isr_2.c **** *  the interrupt to the interrupt controller.
ARM GAS  C:\Users\sinow\AppData\Local\Temp\ccR0Bdxf.s 			page 3


  88:Generated_Source\PSoC5/isr_2.c **** *  
  89:Generated_Source\PSoC5/isr_2.c **** *  When defining ISR functions, the CY_ISR and CY_ISR_PROTO macros should be 
  90:Generated_Source\PSoC5/isr_2.c **** *  used to provide consistent definition across compilers:
  91:Generated_Source\PSoC5/isr_2.c **** *  
  92:Generated_Source\PSoC5/isr_2.c **** *  Function definition example:
  93:Generated_Source\PSoC5/isr_2.c **** *   CY_ISR(MyISR)
  94:Generated_Source\PSoC5/isr_2.c **** *   {
  95:Generated_Source\PSoC5/isr_2.c **** *   }
  96:Generated_Source\PSoC5/isr_2.c **** *   Function prototype example:
  97:Generated_Source\PSoC5/isr_2.c **** *   CY_ISR_PROTO(MyISR);
  98:Generated_Source\PSoC5/isr_2.c **** *
  99:Generated_Source\PSoC5/isr_2.c **** * Parameters:  
 100:Generated_Source\PSoC5/isr_2.c **** *   address: Address of the ISR to set in the interrupt vector table.
 101:Generated_Source\PSoC5/isr_2.c **** *
 102:Generated_Source\PSoC5/isr_2.c **** * Return:
 103:Generated_Source\PSoC5/isr_2.c **** *   None
 104:Generated_Source\PSoC5/isr_2.c **** *
 105:Generated_Source\PSoC5/isr_2.c **** *******************************************************************************/
 106:Generated_Source\PSoC5/isr_2.c **** void isr_2_StartEx(cyisraddress address)
 107:Generated_Source\PSoC5/isr_2.c **** {
 108:Generated_Source\PSoC5/isr_2.c ****     /* For all we know the interrupt is active. */
 109:Generated_Source\PSoC5/isr_2.c ****     isr_2_Disable();
 110:Generated_Source\PSoC5/isr_2.c **** 
 111:Generated_Source\PSoC5/isr_2.c ****     /* Set the ISR to point to the isr_2 Interrupt. */
 112:Generated_Source\PSoC5/isr_2.c ****     isr_2_SetVector(address);
 113:Generated_Source\PSoC5/isr_2.c **** 
 114:Generated_Source\PSoC5/isr_2.c ****     /* Set the priority. */
 115:Generated_Source\PSoC5/isr_2.c ****     isr_2_SetPriority((uint8)isr_2_INTC_PRIOR_NUMBER);
 116:Generated_Source\PSoC5/isr_2.c **** 
 117:Generated_Source\PSoC5/isr_2.c ****     /* Enable it. */
 118:Generated_Source\PSoC5/isr_2.c ****     isr_2_Enable();
 119:Generated_Source\PSoC5/isr_2.c **** }
 120:Generated_Source\PSoC5/isr_2.c **** 
 121:Generated_Source\PSoC5/isr_2.c **** 
 122:Generated_Source\PSoC5/isr_2.c **** /*******************************************************************************
 123:Generated_Source\PSoC5/isr_2.c **** * Function Name: isr_2_Stop
 124:Generated_Source\PSoC5/isr_2.c **** ********************************************************************************
 125:Generated_Source\PSoC5/isr_2.c **** *
 126:Generated_Source\PSoC5/isr_2.c **** * Summary:
 127:Generated_Source\PSoC5/isr_2.c **** *   Disables and removes the interrupt.
 128:Generated_Source\PSoC5/isr_2.c **** *
 129:Generated_Source\PSoC5/isr_2.c **** * Parameters:  
 130:Generated_Source\PSoC5/isr_2.c **** *   None
 131:Generated_Source\PSoC5/isr_2.c **** *
 132:Generated_Source\PSoC5/isr_2.c **** * Return:
 133:Generated_Source\PSoC5/isr_2.c **** *   None
 134:Generated_Source\PSoC5/isr_2.c **** *
 135:Generated_Source\PSoC5/isr_2.c **** *******************************************************************************/
 136:Generated_Source\PSoC5/isr_2.c **** void isr_2_Stop(void)
 137:Generated_Source\PSoC5/isr_2.c **** {
 138:Generated_Source\PSoC5/isr_2.c ****     /* Disable this interrupt. */
 139:Generated_Source\PSoC5/isr_2.c ****     isr_2_Disable();
 140:Generated_Source\PSoC5/isr_2.c **** 
 141:Generated_Source\PSoC5/isr_2.c ****     /* Set the ISR to point to the passive one. */
 142:Generated_Source\PSoC5/isr_2.c ****     isr_2_SetVector(&IntDefaultHandler);
 143:Generated_Source\PSoC5/isr_2.c **** }
 144:Generated_Source\PSoC5/isr_2.c **** 
ARM GAS  C:\Users\sinow\AppData\Local\Temp\ccR0Bdxf.s 			page 4


 145:Generated_Source\PSoC5/isr_2.c **** 
 146:Generated_Source\PSoC5/isr_2.c **** /*******************************************************************************
 147:Generated_Source\PSoC5/isr_2.c **** * Function Name: isr_2_Interrupt
 148:Generated_Source\PSoC5/isr_2.c **** ********************************************************************************
 149:Generated_Source\PSoC5/isr_2.c **** *
 150:Generated_Source\PSoC5/isr_2.c **** * Summary:
 151:Generated_Source\PSoC5/isr_2.c **** *   The default Interrupt Service Routine for isr_2.
 152:Generated_Source\PSoC5/isr_2.c **** *
 153:Generated_Source\PSoC5/isr_2.c **** *   Add custom code between the coments to keep the next version of this file
 154:Generated_Source\PSoC5/isr_2.c **** *   from over writting your code.
 155:Generated_Source\PSoC5/isr_2.c **** *
 156:Generated_Source\PSoC5/isr_2.c **** * Parameters:  
 157:Generated_Source\PSoC5/isr_2.c **** *
 158:Generated_Source\PSoC5/isr_2.c **** * Return:
 159:Generated_Source\PSoC5/isr_2.c **** *   None
 160:Generated_Source\PSoC5/isr_2.c **** *
 161:Generated_Source\PSoC5/isr_2.c **** *******************************************************************************/
 162:Generated_Source\PSoC5/isr_2.c **** CY_ISR(isr_2_Interrupt)
 163:Generated_Source\PSoC5/isr_2.c **** {
  28              		.loc 1 163 0
  29              		.cfi_startproc
  30              		@ args = 0, pretend = 0, frame = 32
  31              		@ frame_needed = 0, uses_anonymous_args = 0
  32 0000 00B5     		push	{lr}
  33              		.cfi_def_cfa_offset 4
  34              		.cfi_offset 14, -4
  35 0002 89B0     		sub	sp, sp, #36
  36              		.cfi_def_cfa_offset 40
 164:Generated_Source\PSoC5/isr_2.c ****     #ifdef isr_2_INTERRUPT_INTERRUPT_CALLBACK
 165:Generated_Source\PSoC5/isr_2.c ****         isr_2_Interrupt_InterruptCallback();
 166:Generated_Source\PSoC5/isr_2.c ****     #endif /* isr_2_INTERRUPT_INTERRUPT_CALLBACK */ 
 167:Generated_Source\PSoC5/isr_2.c **** 
 168:Generated_Source\PSoC5/isr_2.c ****     /*  Place your Interrupt code here. */
 169:Generated_Source\PSoC5/isr_2.c ****     /* `#START isr_2_Interrupt` */
 170:Generated_Source\PSoC5/isr_2.c ****     
 171:Generated_Source\PSoC5/isr_2.c ****     char msg[32];//message string
 172:Generated_Source\PSoC5/isr_2.c ****     
 173:Generated_Source\PSoC5/isr_2.c ****     sprintf(msg, "Pull It!\r\n"); //printing formatted string 
  37              		.loc 1 173 0
  38 0004 074A     		ldr	r2, .L3
  39 0006 6B46     		mov	r3, sp
  40 0008 07CA     		ldmia	r2, {r0, r1, r2}
  41 000a 03C3     		stmia	r3!, {r0, r1}
  42 000c 23F8022B 		strh	r2, [r3], #2	@ movhi
  43 0010 120C     		lsrs	r2, r2, #16
  44 0012 1A70     		strb	r2, [r3]
 174:Generated_Source\PSoC5/isr_2.c ****     UART_PutString(msg); //sending formatted string to UART
  45              		.loc 1 174 0
  46 0014 6846     		mov	r0, sp
  47 0016 FFF7FEFF 		bl	UART_PutString
  48              	.LVL0:
 175:Generated_Source\PSoC5/isr_2.c ****     Timer_2_ReadStatusRegister(); //perform this action at 
  49              		.loc 1 175 0
  50 001a FFF7FEFF 		bl	Timer_2_ReadStatusRegister
  51              	.LVL1:
 176:Generated_Source\PSoC5/isr_2.c ****       
 177:Generated_Source\PSoC5/isr_2.c **** 
ARM GAS  C:\Users\sinow\AppData\Local\Temp\ccR0Bdxf.s 			page 5


 178:Generated_Source\PSoC5/isr_2.c ****     /* `#END` */
 179:Generated_Source\PSoC5/isr_2.c **** }
  52              		.loc 1 179 0
  53 001e 09B0     		add	sp, sp, #36
  54              		.cfi_def_cfa_offset 4
  55              		@ sp needed
  56 0020 5DF804FB 		ldr	pc, [sp], #4
  57              	.L4:
  58              		.align	2
  59              	.L3:
  60 0024 00000000 		.word	.LC0
  61              		.cfi_endproc
  62              	.LFE67:
  63              		.size	isr_2_Interrupt, .-isr_2_Interrupt
  64              		.section	.text.isr_2_SetVector,"ax",%progbits
  65              		.align	2
  66              		.global	isr_2_SetVector
  67              		.thumb
  68              		.thumb_func
  69              		.type	isr_2_SetVector, %function
  70              	isr_2_SetVector:
  71              	.LFB68:
 180:Generated_Source\PSoC5/isr_2.c **** 
 181:Generated_Source\PSoC5/isr_2.c **** 
 182:Generated_Source\PSoC5/isr_2.c **** /*******************************************************************************
 183:Generated_Source\PSoC5/isr_2.c **** * Function Name: isr_2_SetVector
 184:Generated_Source\PSoC5/isr_2.c **** ********************************************************************************
 185:Generated_Source\PSoC5/isr_2.c **** *
 186:Generated_Source\PSoC5/isr_2.c **** * Summary:
 187:Generated_Source\PSoC5/isr_2.c **** *   Change the ISR vector for the Interrupt. Note calling isr_2_Start
 188:Generated_Source\PSoC5/isr_2.c **** *   will override any effect this method would have had. To set the vector 
 189:Generated_Source\PSoC5/isr_2.c **** *   before the component has been started use isr_2_StartEx instead.
 190:Generated_Source\PSoC5/isr_2.c **** * 
 191:Generated_Source\PSoC5/isr_2.c **** *   When defining ISR functions, the CY_ISR and CY_ISR_PROTO macros should be 
 192:Generated_Source\PSoC5/isr_2.c **** *   used to provide consistent definition across compilers:
 193:Generated_Source\PSoC5/isr_2.c **** *
 194:Generated_Source\PSoC5/isr_2.c **** *   Function definition example:
 195:Generated_Source\PSoC5/isr_2.c **** *   CY_ISR(MyISR)
 196:Generated_Source\PSoC5/isr_2.c **** *   {
 197:Generated_Source\PSoC5/isr_2.c **** *   }
 198:Generated_Source\PSoC5/isr_2.c **** *
 199:Generated_Source\PSoC5/isr_2.c **** *   Function prototype example:
 200:Generated_Source\PSoC5/isr_2.c **** *     CY_ISR_PROTO(MyISR);
 201:Generated_Source\PSoC5/isr_2.c **** *
 202:Generated_Source\PSoC5/isr_2.c **** * Parameters:
 203:Generated_Source\PSoC5/isr_2.c **** *   address: Address of the ISR to set in the interrupt vector table.
 204:Generated_Source\PSoC5/isr_2.c **** *
 205:Generated_Source\PSoC5/isr_2.c **** * Return:
 206:Generated_Source\PSoC5/isr_2.c **** *   None
 207:Generated_Source\PSoC5/isr_2.c **** *
 208:Generated_Source\PSoC5/isr_2.c **** *******************************************************************************/
 209:Generated_Source\PSoC5/isr_2.c **** void isr_2_SetVector(cyisraddress address)
 210:Generated_Source\PSoC5/isr_2.c **** {
  72              		.loc 1 210 0
  73              		.cfi_startproc
  74              		@ args = 0, pretend = 0, frame = 0
  75              		@ frame_needed = 0, uses_anonymous_args = 0
ARM GAS  C:\Users\sinow\AppData\Local\Temp\ccR0Bdxf.s 			page 6


  76              		@ link register save eliminated.
  77              	.LVL2:
 211:Generated_Source\PSoC5/isr_2.c ****     cyisraddress * ramVectorTable;
 212:Generated_Source\PSoC5/isr_2.c **** 
 213:Generated_Source\PSoC5/isr_2.c ****     ramVectorTable = (cyisraddress *) *CYINT_VECT_TABLE;
  78              		.loc 1 213 0
  79 0000 014B     		ldr	r3, .L6
  80 0002 1B68     		ldr	r3, [r3]
  81              	.LVL3:
 214:Generated_Source\PSoC5/isr_2.c **** 
 215:Generated_Source\PSoC5/isr_2.c ****     ramVectorTable[CYINT_IRQ_BASE + (uint32)isr_2__INTC_NUMBER] = address;
  82              		.loc 1 215 0
  83 0004 5864     		str	r0, [r3, #68]
  84 0006 7047     		bx	lr
  85              	.L7:
  86              		.align	2
  87              	.L6:
  88 0008 08ED00E0 		.word	-536810232
  89              		.cfi_endproc
  90              	.LFE68:
  91              		.size	isr_2_SetVector, .-isr_2_SetVector
  92              		.section	.text.isr_2_GetVector,"ax",%progbits
  93              		.align	2
  94              		.global	isr_2_GetVector
  95              		.thumb
  96              		.thumb_func
  97              		.type	isr_2_GetVector, %function
  98              	isr_2_GetVector:
  99              	.LFB69:
 216:Generated_Source\PSoC5/isr_2.c **** }
 217:Generated_Source\PSoC5/isr_2.c **** 
 218:Generated_Source\PSoC5/isr_2.c **** 
 219:Generated_Source\PSoC5/isr_2.c **** /*******************************************************************************
 220:Generated_Source\PSoC5/isr_2.c **** * Function Name: isr_2_GetVector
 221:Generated_Source\PSoC5/isr_2.c **** ********************************************************************************
 222:Generated_Source\PSoC5/isr_2.c **** *
 223:Generated_Source\PSoC5/isr_2.c **** * Summary:
 224:Generated_Source\PSoC5/isr_2.c **** *   Gets the "address" of the current ISR vector for the Interrupt.
 225:Generated_Source\PSoC5/isr_2.c **** *
 226:Generated_Source\PSoC5/isr_2.c **** * Parameters:
 227:Generated_Source\PSoC5/isr_2.c **** *   None
 228:Generated_Source\PSoC5/isr_2.c **** *
 229:Generated_Source\PSoC5/isr_2.c **** * Return:
 230:Generated_Source\PSoC5/isr_2.c **** *   Address of the ISR in the interrupt vector table.
 231:Generated_Source\PSoC5/isr_2.c **** *
 232:Generated_Source\PSoC5/isr_2.c **** *******************************************************************************/
 233:Generated_Source\PSoC5/isr_2.c **** cyisraddress isr_2_GetVector(void)
 234:Generated_Source\PSoC5/isr_2.c **** {
 100              		.loc 1 234 0
 101              		.cfi_startproc
 102              		@ args = 0, pretend = 0, frame = 0
 103              		@ frame_needed = 0, uses_anonymous_args = 0
 104              		@ link register save eliminated.
 235:Generated_Source\PSoC5/isr_2.c ****     cyisraddress * ramVectorTable;
 236:Generated_Source\PSoC5/isr_2.c **** 
 237:Generated_Source\PSoC5/isr_2.c ****     ramVectorTable = (cyisraddress *) *CYINT_VECT_TABLE;
 105              		.loc 1 237 0
ARM GAS  C:\Users\sinow\AppData\Local\Temp\ccR0Bdxf.s 			page 7


 106 0000 014B     		ldr	r3, .L9
 107 0002 1B68     		ldr	r3, [r3]
 108              	.LVL4:
 238:Generated_Source\PSoC5/isr_2.c **** 
 239:Generated_Source\PSoC5/isr_2.c ****     return ramVectorTable[CYINT_IRQ_BASE + (uint32)isr_2__INTC_NUMBER];
 240:Generated_Source\PSoC5/isr_2.c **** }
 109              		.loc 1 240 0
 110 0004 586C     		ldr	r0, [r3, #68]
 111 0006 7047     		bx	lr
 112              	.L10:
 113              		.align	2
 114              	.L9:
 115 0008 08ED00E0 		.word	-536810232
 116              		.cfi_endproc
 117              	.LFE69:
 118              		.size	isr_2_GetVector, .-isr_2_GetVector
 119              		.section	.text.isr_2_SetPriority,"ax",%progbits
 120              		.align	2
 121              		.global	isr_2_SetPriority
 122              		.thumb
 123              		.thumb_func
 124              		.type	isr_2_SetPriority, %function
 125              	isr_2_SetPriority:
 126              	.LFB70:
 241:Generated_Source\PSoC5/isr_2.c **** 
 242:Generated_Source\PSoC5/isr_2.c **** 
 243:Generated_Source\PSoC5/isr_2.c **** /*******************************************************************************
 244:Generated_Source\PSoC5/isr_2.c **** * Function Name: isr_2_SetPriority
 245:Generated_Source\PSoC5/isr_2.c **** ********************************************************************************
 246:Generated_Source\PSoC5/isr_2.c **** *
 247:Generated_Source\PSoC5/isr_2.c **** * Summary:
 248:Generated_Source\PSoC5/isr_2.c **** *   Sets the Priority of the Interrupt. 
 249:Generated_Source\PSoC5/isr_2.c **** *
 250:Generated_Source\PSoC5/isr_2.c **** *   Note calling isr_2_Start or isr_2_StartEx will 
 251:Generated_Source\PSoC5/isr_2.c **** *   override any effect this API would have had. This API should only be called
 252:Generated_Source\PSoC5/isr_2.c **** *   after isr_2_Start or isr_2_StartEx has been called. 
 253:Generated_Source\PSoC5/isr_2.c **** *   To set the initial priority for the component, use the Design-Wide Resources
 254:Generated_Source\PSoC5/isr_2.c **** *   Interrupt Editor.
 255:Generated_Source\PSoC5/isr_2.c **** *
 256:Generated_Source\PSoC5/isr_2.c **** *   Note This API has no effect on Non-maskable interrupt NMI).
 257:Generated_Source\PSoC5/isr_2.c **** *
 258:Generated_Source\PSoC5/isr_2.c **** * Parameters:
 259:Generated_Source\PSoC5/isr_2.c **** *   priority: Priority of the interrupt, 0 being the highest priority
 260:Generated_Source\PSoC5/isr_2.c **** *             PSoC 3 and PSoC 5LP: Priority is from 0 to 7.
 261:Generated_Source\PSoC5/isr_2.c **** *             PSoC 4: Priority is from 0 to 3.
 262:Generated_Source\PSoC5/isr_2.c **** *
 263:Generated_Source\PSoC5/isr_2.c **** * Return:
 264:Generated_Source\PSoC5/isr_2.c **** *   None
 265:Generated_Source\PSoC5/isr_2.c **** *
 266:Generated_Source\PSoC5/isr_2.c **** *******************************************************************************/
 267:Generated_Source\PSoC5/isr_2.c **** void isr_2_SetPriority(uint8 priority)
 268:Generated_Source\PSoC5/isr_2.c **** {
 127              		.loc 1 268 0
 128              		.cfi_startproc
 129              		@ args = 0, pretend = 0, frame = 0
 130              		@ frame_needed = 0, uses_anonymous_args = 0
 131              		@ link register save eliminated.
ARM GAS  C:\Users\sinow\AppData\Local\Temp\ccR0Bdxf.s 			page 8


 132              	.LVL5:
 269:Generated_Source\PSoC5/isr_2.c ****     *isr_2_INTC_PRIOR = priority << 5;
 133              		.loc 1 269 0
 134 0000 4001     		lsls	r0, r0, #5
 135              	.LVL6:
 136 0002 C0B2     		uxtb	r0, r0
 137 0004 014B     		ldr	r3, .L12
 138 0006 1870     		strb	r0, [r3]
 139 0008 7047     		bx	lr
 140              	.L13:
 141 000a 00BF     		.align	2
 142              	.L12:
 143 000c 01E400E0 		.word	-536812543
 144              		.cfi_endproc
 145              	.LFE70:
 146              		.size	isr_2_SetPriority, .-isr_2_SetPriority
 147              		.section	.text.isr_2_GetPriority,"ax",%progbits
 148              		.align	2
 149              		.global	isr_2_GetPriority
 150              		.thumb
 151              		.thumb_func
 152              		.type	isr_2_GetPriority, %function
 153              	isr_2_GetPriority:
 154              	.LFB71:
 270:Generated_Source\PSoC5/isr_2.c **** }
 271:Generated_Source\PSoC5/isr_2.c **** 
 272:Generated_Source\PSoC5/isr_2.c **** 
 273:Generated_Source\PSoC5/isr_2.c **** /*******************************************************************************
 274:Generated_Source\PSoC5/isr_2.c **** * Function Name: isr_2_GetPriority
 275:Generated_Source\PSoC5/isr_2.c **** ********************************************************************************
 276:Generated_Source\PSoC5/isr_2.c **** *
 277:Generated_Source\PSoC5/isr_2.c **** * Summary:
 278:Generated_Source\PSoC5/isr_2.c **** *   Gets the Priority of the Interrupt.
 279:Generated_Source\PSoC5/isr_2.c **** *
 280:Generated_Source\PSoC5/isr_2.c **** * Parameters:
 281:Generated_Source\PSoC5/isr_2.c **** *   None
 282:Generated_Source\PSoC5/isr_2.c **** *
 283:Generated_Source\PSoC5/isr_2.c **** * Return:
 284:Generated_Source\PSoC5/isr_2.c **** *   Priority of the interrupt, 0 being the highest priority
 285:Generated_Source\PSoC5/isr_2.c **** *    PSoC 3 and PSoC 5LP: Priority is from 0 to 7.
 286:Generated_Source\PSoC5/isr_2.c **** *    PSoC 4: Priority is from 0 to 3.
 287:Generated_Source\PSoC5/isr_2.c **** *
 288:Generated_Source\PSoC5/isr_2.c **** *******************************************************************************/
 289:Generated_Source\PSoC5/isr_2.c **** uint8 isr_2_GetPriority(void)
 290:Generated_Source\PSoC5/isr_2.c **** {
 155              		.loc 1 290 0
 156              		.cfi_startproc
 157              		@ args = 0, pretend = 0, frame = 0
 158              		@ frame_needed = 0, uses_anonymous_args = 0
 159              		@ link register save eliminated.
 291:Generated_Source\PSoC5/isr_2.c ****     uint8 priority;
 292:Generated_Source\PSoC5/isr_2.c **** 
 293:Generated_Source\PSoC5/isr_2.c **** 
 294:Generated_Source\PSoC5/isr_2.c ****     priority = *isr_2_INTC_PRIOR >> 5;
 160              		.loc 1 294 0
 161 0000 014B     		ldr	r3, .L15
 162 0002 1878     		ldrb	r0, [r3]	@ zero_extendqisi2
ARM GAS  C:\Users\sinow\AppData\Local\Temp\ccR0Bdxf.s 			page 9


 163              	.LVL7:
 295:Generated_Source\PSoC5/isr_2.c **** 
 296:Generated_Source\PSoC5/isr_2.c ****     return priority;
 297:Generated_Source\PSoC5/isr_2.c **** }
 164              		.loc 1 297 0
 165 0004 4009     		lsrs	r0, r0, #5
 166              	.LVL8:
 167 0006 7047     		bx	lr
 168              	.L16:
 169              		.align	2
 170              	.L15:
 171 0008 01E400E0 		.word	-536812543
 172              		.cfi_endproc
 173              	.LFE71:
 174              		.size	isr_2_GetPriority, .-isr_2_GetPriority
 175              		.section	.text.isr_2_Enable,"ax",%progbits
 176              		.align	2
 177              		.global	isr_2_Enable
 178              		.thumb
 179              		.thumb_func
 180              		.type	isr_2_Enable, %function
 181              	isr_2_Enable:
 182              	.LFB72:
 298:Generated_Source\PSoC5/isr_2.c **** 
 299:Generated_Source\PSoC5/isr_2.c **** 
 300:Generated_Source\PSoC5/isr_2.c **** /*******************************************************************************
 301:Generated_Source\PSoC5/isr_2.c **** * Function Name: isr_2_Enable
 302:Generated_Source\PSoC5/isr_2.c **** ********************************************************************************
 303:Generated_Source\PSoC5/isr_2.c **** *
 304:Generated_Source\PSoC5/isr_2.c **** * Summary:
 305:Generated_Source\PSoC5/isr_2.c **** *   Enables the interrupt to the interrupt controller. Do not call this function
 306:Generated_Source\PSoC5/isr_2.c **** *   unless ISR_Start() has been called or the functionality of the ISR_Start() 
 307:Generated_Source\PSoC5/isr_2.c **** *   function, which sets the vector and the priority, has been called.
 308:Generated_Source\PSoC5/isr_2.c **** *
 309:Generated_Source\PSoC5/isr_2.c **** * Parameters:
 310:Generated_Source\PSoC5/isr_2.c **** *   None
 311:Generated_Source\PSoC5/isr_2.c **** *
 312:Generated_Source\PSoC5/isr_2.c **** * Return:
 313:Generated_Source\PSoC5/isr_2.c **** *   None
 314:Generated_Source\PSoC5/isr_2.c **** *
 315:Generated_Source\PSoC5/isr_2.c **** *******************************************************************************/
 316:Generated_Source\PSoC5/isr_2.c **** void isr_2_Enable(void)
 317:Generated_Source\PSoC5/isr_2.c **** {
 183              		.loc 1 317 0
 184              		.cfi_startproc
 185              		@ args = 0, pretend = 0, frame = 0
 186              		@ frame_needed = 0, uses_anonymous_args = 0
 187              		@ link register save eliminated.
 318:Generated_Source\PSoC5/isr_2.c ****     /* Enable the general interrupt. */
 319:Generated_Source\PSoC5/isr_2.c ****     *isr_2_INTC_SET_EN = isr_2__INTC_MASK;
 188              		.loc 1 319 0
 189 0000 0222     		movs	r2, #2
 190 0002 014B     		ldr	r3, .L18
 191 0004 1A60     		str	r2, [r3]
 192 0006 7047     		bx	lr
 193              	.L19:
 194              		.align	2
ARM GAS  C:\Users\sinow\AppData\Local\Temp\ccR0Bdxf.s 			page 10


 195              	.L18:
 196 0008 00E100E0 		.word	-536813312
 197              		.cfi_endproc
 198              	.LFE72:
 199              		.size	isr_2_Enable, .-isr_2_Enable
 200              		.section	.text.isr_2_GetState,"ax",%progbits
 201              		.align	2
 202              		.global	isr_2_GetState
 203              		.thumb
 204              		.thumb_func
 205              		.type	isr_2_GetState, %function
 206              	isr_2_GetState:
 207              	.LFB73:
 320:Generated_Source\PSoC5/isr_2.c **** }
 321:Generated_Source\PSoC5/isr_2.c **** 
 322:Generated_Source\PSoC5/isr_2.c **** 
 323:Generated_Source\PSoC5/isr_2.c **** /*******************************************************************************
 324:Generated_Source\PSoC5/isr_2.c **** * Function Name: isr_2_GetState
 325:Generated_Source\PSoC5/isr_2.c **** ********************************************************************************
 326:Generated_Source\PSoC5/isr_2.c **** *
 327:Generated_Source\PSoC5/isr_2.c **** * Summary:
 328:Generated_Source\PSoC5/isr_2.c **** *   Gets the state (enabled, disabled) of the Interrupt.
 329:Generated_Source\PSoC5/isr_2.c **** *
 330:Generated_Source\PSoC5/isr_2.c **** * Parameters:
 331:Generated_Source\PSoC5/isr_2.c **** *   None
 332:Generated_Source\PSoC5/isr_2.c **** *
 333:Generated_Source\PSoC5/isr_2.c **** * Return:
 334:Generated_Source\PSoC5/isr_2.c **** *   1 if enabled, 0 if disabled.
 335:Generated_Source\PSoC5/isr_2.c **** *
 336:Generated_Source\PSoC5/isr_2.c **** *******************************************************************************/
 337:Generated_Source\PSoC5/isr_2.c **** uint8 isr_2_GetState(void)
 338:Generated_Source\PSoC5/isr_2.c **** {
 208              		.loc 1 338 0
 209              		.cfi_startproc
 210              		@ args = 0, pretend = 0, frame = 0
 211              		@ frame_needed = 0, uses_anonymous_args = 0
 212              		@ link register save eliminated.
 339:Generated_Source\PSoC5/isr_2.c ****     /* Get the state of the general interrupt. */
 340:Generated_Source\PSoC5/isr_2.c ****     return ((*isr_2_INTC_SET_EN & (uint32)isr_2__INTC_MASK) != 0u) ? 1u:0u;
 213              		.loc 1 340 0
 214 0000 044B     		ldr	r3, .L23
 215 0002 1B68     		ldr	r3, [r3]
 216 0004 13F0020F 		tst	r3, #2
 217 0008 01D0     		beq	.L22
 218 000a 0120     		movs	r0, #1
 219 000c 7047     		bx	lr
 220              	.L22:
 221 000e 0020     		movs	r0, #0
 341:Generated_Source\PSoC5/isr_2.c **** }
 222              		.loc 1 341 0
 223 0010 7047     		bx	lr
 224              	.L24:
 225 0012 00BF     		.align	2
 226              	.L23:
 227 0014 00E100E0 		.word	-536813312
 228              		.cfi_endproc
 229              	.LFE73:
ARM GAS  C:\Users\sinow\AppData\Local\Temp\ccR0Bdxf.s 			page 11


 230              		.size	isr_2_GetState, .-isr_2_GetState
 231              		.section	.text.isr_2_Disable,"ax",%progbits
 232              		.align	2
 233              		.global	isr_2_Disable
 234              		.thumb
 235              		.thumb_func
 236              		.type	isr_2_Disable, %function
 237              	isr_2_Disable:
 238              	.LFB74:
 342:Generated_Source\PSoC5/isr_2.c **** 
 343:Generated_Source\PSoC5/isr_2.c **** 
 344:Generated_Source\PSoC5/isr_2.c **** /*******************************************************************************
 345:Generated_Source\PSoC5/isr_2.c **** * Function Name: isr_2_Disable
 346:Generated_Source\PSoC5/isr_2.c **** ********************************************************************************
 347:Generated_Source\PSoC5/isr_2.c **** *
 348:Generated_Source\PSoC5/isr_2.c **** * Summary:
 349:Generated_Source\PSoC5/isr_2.c **** *   Disables the Interrupt in the interrupt controller.
 350:Generated_Source\PSoC5/isr_2.c **** *
 351:Generated_Source\PSoC5/isr_2.c **** * Parameters:
 352:Generated_Source\PSoC5/isr_2.c **** *   None
 353:Generated_Source\PSoC5/isr_2.c **** *
 354:Generated_Source\PSoC5/isr_2.c **** * Return:
 355:Generated_Source\PSoC5/isr_2.c **** *   None
 356:Generated_Source\PSoC5/isr_2.c **** *
 357:Generated_Source\PSoC5/isr_2.c **** *******************************************************************************/
 358:Generated_Source\PSoC5/isr_2.c **** void isr_2_Disable(void)
 359:Generated_Source\PSoC5/isr_2.c **** {
 239              		.loc 1 359 0
 240              		.cfi_startproc
 241              		@ args = 0, pretend = 0, frame = 0
 242              		@ frame_needed = 0, uses_anonymous_args = 0
 243              		@ link register save eliminated.
 360:Generated_Source\PSoC5/isr_2.c ****     /* Disable the general interrupt. */
 361:Generated_Source\PSoC5/isr_2.c ****     *isr_2_INTC_CLR_EN = isr_2__INTC_MASK;
 244              		.loc 1 361 0
 245 0000 0222     		movs	r2, #2
 246 0002 014B     		ldr	r3, .L26
 247 0004 1A60     		str	r2, [r3]
 248 0006 7047     		bx	lr
 249              	.L27:
 250              		.align	2
 251              	.L26:
 252 0008 80E100E0 		.word	-536813184
 253              		.cfi_endproc
 254              	.LFE74:
 255              		.size	isr_2_Disable, .-isr_2_Disable
 256              		.section	.text.isr_2_Start,"ax",%progbits
 257              		.align	2
 258              		.global	isr_2_Start
 259              		.thumb
 260              		.thumb_func
 261              		.type	isr_2_Start, %function
 262              	isr_2_Start:
 263              	.LFB64:
  64:Generated_Source\PSoC5/isr_2.c ****     /* For all we know the interrupt is active. */
 264              		.loc 1 64 0
 265              		.cfi_startproc
ARM GAS  C:\Users\sinow\AppData\Local\Temp\ccR0Bdxf.s 			page 12


 266              		@ args = 0, pretend = 0, frame = 0
 267              		@ frame_needed = 0, uses_anonymous_args = 0
 268 0000 08B5     		push	{r3, lr}
 269              		.cfi_def_cfa_offset 8
 270              		.cfi_offset 3, -8
 271              		.cfi_offset 14, -4
  66:Generated_Source\PSoC5/isr_2.c **** 
 272              		.loc 1 66 0
 273 0002 FFF7FEFF 		bl	isr_2_Disable
 274              	.LVL9:
  69:Generated_Source\PSoC5/isr_2.c **** 
 275              		.loc 1 69 0
 276 0006 0448     		ldr	r0, .L30
 277 0008 FFF7FEFF 		bl	isr_2_SetVector
 278              	.LVL10:
  72:Generated_Source\PSoC5/isr_2.c **** 
 279              		.loc 1 72 0
 280 000c 0320     		movs	r0, #3
 281 000e FFF7FEFF 		bl	isr_2_SetPriority
 282              	.LVL11:
  75:Generated_Source\PSoC5/isr_2.c **** }
 283              		.loc 1 75 0
 284 0012 FFF7FEFF 		bl	isr_2_Enable
 285              	.LVL12:
 286 0016 08BD     		pop	{r3, pc}
 287              	.L31:
 288              		.align	2
 289              	.L30:
 290 0018 00000000 		.word	isr_2_Interrupt
 291              		.cfi_endproc
 292              	.LFE64:
 293              		.size	isr_2_Start, .-isr_2_Start
 294              		.section	.text.isr_2_StartEx,"ax",%progbits
 295              		.align	2
 296              		.global	isr_2_StartEx
 297              		.thumb
 298              		.thumb_func
 299              		.type	isr_2_StartEx, %function
 300              	isr_2_StartEx:
 301              	.LFB65:
 107:Generated_Source\PSoC5/isr_2.c ****     /* For all we know the interrupt is active. */
 302              		.loc 1 107 0
 303              		.cfi_startproc
 304              		@ args = 0, pretend = 0, frame = 0
 305              		@ frame_needed = 0, uses_anonymous_args = 0
 306              	.LVL13:
 307 0000 10B5     		push	{r4, lr}
 308              		.cfi_def_cfa_offset 8
 309              		.cfi_offset 4, -8
 310              		.cfi_offset 14, -4
 311 0002 0446     		mov	r4, r0
 109:Generated_Source\PSoC5/isr_2.c **** 
 312              		.loc 1 109 0
 313 0004 FFF7FEFF 		bl	isr_2_Disable
 314              	.LVL14:
 112:Generated_Source\PSoC5/isr_2.c **** 
 315              		.loc 1 112 0
ARM GAS  C:\Users\sinow\AppData\Local\Temp\ccR0Bdxf.s 			page 13


 316 0008 2046     		mov	r0, r4
 317 000a FFF7FEFF 		bl	isr_2_SetVector
 318              	.LVL15:
 115:Generated_Source\PSoC5/isr_2.c **** 
 319              		.loc 1 115 0
 320 000e 0320     		movs	r0, #3
 321 0010 FFF7FEFF 		bl	isr_2_SetPriority
 322              	.LVL16:
 118:Generated_Source\PSoC5/isr_2.c **** }
 323              		.loc 1 118 0
 324 0014 FFF7FEFF 		bl	isr_2_Enable
 325              	.LVL17:
 326 0018 10BD     		pop	{r4, pc}
 327              		.cfi_endproc
 328              	.LFE65:
 329              		.size	isr_2_StartEx, .-isr_2_StartEx
 330 001a 00BF     		.section	.text.isr_2_Stop,"ax",%progbits
 331              		.align	2
 332              		.global	isr_2_Stop
 333              		.thumb
 334              		.thumb_func
 335              		.type	isr_2_Stop, %function
 336              	isr_2_Stop:
 337              	.LFB66:
 137:Generated_Source\PSoC5/isr_2.c ****     /* Disable this interrupt. */
 338              		.loc 1 137 0
 339              		.cfi_startproc
 340              		@ args = 0, pretend = 0, frame = 0
 341              		@ frame_needed = 0, uses_anonymous_args = 0
 342 0000 08B5     		push	{r3, lr}
 343              		.cfi_def_cfa_offset 8
 344              		.cfi_offset 3, -8
 345              		.cfi_offset 14, -4
 139:Generated_Source\PSoC5/isr_2.c **** 
 346              		.loc 1 139 0
 347 0002 FFF7FEFF 		bl	isr_2_Disable
 348              	.LVL18:
 142:Generated_Source\PSoC5/isr_2.c **** }
 349              		.loc 1 142 0
 350 0006 0248     		ldr	r0, .L36
 351 0008 FFF7FEFF 		bl	isr_2_SetVector
 352              	.LVL19:
 353 000c 08BD     		pop	{r3, pc}
 354              	.L37:
 355 000e 00BF     		.align	2
 356              	.L36:
 357 0010 00000000 		.word	IntDefaultHandler
 358              		.cfi_endproc
 359              	.LFE66:
 360              		.size	isr_2_Stop, .-isr_2_Stop
 361              		.section	.text.isr_2_SetPending,"ax",%progbits
 362              		.align	2
 363              		.global	isr_2_SetPending
 364              		.thumb
 365              		.thumb_func
 366              		.type	isr_2_SetPending, %function
 367              	isr_2_SetPending:
ARM GAS  C:\Users\sinow\AppData\Local\Temp\ccR0Bdxf.s 			page 14


 368              	.LFB75:
 362:Generated_Source\PSoC5/isr_2.c **** }
 363:Generated_Source\PSoC5/isr_2.c **** 
 364:Generated_Source\PSoC5/isr_2.c **** 
 365:Generated_Source\PSoC5/isr_2.c **** /*******************************************************************************
 366:Generated_Source\PSoC5/isr_2.c **** * Function Name: isr_2_SetPending
 367:Generated_Source\PSoC5/isr_2.c **** ********************************************************************************
 368:Generated_Source\PSoC5/isr_2.c **** *
 369:Generated_Source\PSoC5/isr_2.c **** * Summary:
 370:Generated_Source\PSoC5/isr_2.c **** *   Causes the Interrupt to enter the pending state, a software method of
 371:Generated_Source\PSoC5/isr_2.c **** *   generating the interrupt.
 372:Generated_Source\PSoC5/isr_2.c **** *
 373:Generated_Source\PSoC5/isr_2.c **** * Parameters:
 374:Generated_Source\PSoC5/isr_2.c **** *   None
 375:Generated_Source\PSoC5/isr_2.c **** *
 376:Generated_Source\PSoC5/isr_2.c **** * Return:
 377:Generated_Source\PSoC5/isr_2.c **** *   None
 378:Generated_Source\PSoC5/isr_2.c **** *
 379:Generated_Source\PSoC5/isr_2.c **** * Side Effects:
 380:Generated_Source\PSoC5/isr_2.c **** *   If interrupts are enabled and the interrupt is set up properly, the ISR is
 381:Generated_Source\PSoC5/isr_2.c **** *   entered (depending on the priority of this interrupt and other pending 
 382:Generated_Source\PSoC5/isr_2.c **** *   interrupts).
 383:Generated_Source\PSoC5/isr_2.c **** *
 384:Generated_Source\PSoC5/isr_2.c **** *******************************************************************************/
 385:Generated_Source\PSoC5/isr_2.c **** void isr_2_SetPending(void)
 386:Generated_Source\PSoC5/isr_2.c **** {
 369              		.loc 1 386 0
 370              		.cfi_startproc
 371              		@ args = 0, pretend = 0, frame = 0
 372              		@ frame_needed = 0, uses_anonymous_args = 0
 373              		@ link register save eliminated.
 387:Generated_Source\PSoC5/isr_2.c ****     *isr_2_INTC_SET_PD = isr_2__INTC_MASK;
 374              		.loc 1 387 0
 375 0000 0222     		movs	r2, #2
 376 0002 014B     		ldr	r3, .L39
 377 0004 1A60     		str	r2, [r3]
 378 0006 7047     		bx	lr
 379              	.L40:
 380              		.align	2
 381              	.L39:
 382 0008 00E200E0 		.word	-536813056
 383              		.cfi_endproc
 384              	.LFE75:
 385              		.size	isr_2_SetPending, .-isr_2_SetPending
 386              		.section	.text.isr_2_ClearPending,"ax",%progbits
 387              		.align	2
 388              		.global	isr_2_ClearPending
 389              		.thumb
 390              		.thumb_func
 391              		.type	isr_2_ClearPending, %function
 392              	isr_2_ClearPending:
 393              	.LFB76:
 388:Generated_Source\PSoC5/isr_2.c **** }
 389:Generated_Source\PSoC5/isr_2.c **** 
 390:Generated_Source\PSoC5/isr_2.c **** 
 391:Generated_Source\PSoC5/isr_2.c **** /*******************************************************************************
 392:Generated_Source\PSoC5/isr_2.c **** * Function Name: isr_2_ClearPending
ARM GAS  C:\Users\sinow\AppData\Local\Temp\ccR0Bdxf.s 			page 15


 393:Generated_Source\PSoC5/isr_2.c **** ********************************************************************************
 394:Generated_Source\PSoC5/isr_2.c **** *
 395:Generated_Source\PSoC5/isr_2.c **** * Summary:
 396:Generated_Source\PSoC5/isr_2.c **** *   Clears a pending interrupt in the interrupt controller.
 397:Generated_Source\PSoC5/isr_2.c **** *
 398:Generated_Source\PSoC5/isr_2.c **** *   Note Some interrupt sources are clear-on-read and require the block 
 399:Generated_Source\PSoC5/isr_2.c **** *   interrupt/status register to be read/cleared with the appropriate block API 
 400:Generated_Source\PSoC5/isr_2.c **** *   (GPIO, UART, and so on). Otherwise the ISR will continue to remain in 
 401:Generated_Source\PSoC5/isr_2.c **** *   pending state even though the interrupt itself is cleared using this API.
 402:Generated_Source\PSoC5/isr_2.c **** *
 403:Generated_Source\PSoC5/isr_2.c **** * Parameters:
 404:Generated_Source\PSoC5/isr_2.c **** *   None
 405:Generated_Source\PSoC5/isr_2.c **** *
 406:Generated_Source\PSoC5/isr_2.c **** * Return:
 407:Generated_Source\PSoC5/isr_2.c **** *   None
 408:Generated_Source\PSoC5/isr_2.c **** *
 409:Generated_Source\PSoC5/isr_2.c **** *******************************************************************************/
 410:Generated_Source\PSoC5/isr_2.c **** void isr_2_ClearPending(void)
 411:Generated_Source\PSoC5/isr_2.c **** {
 394              		.loc 1 411 0
 395              		.cfi_startproc
 396              		@ args = 0, pretend = 0, frame = 0
 397              		@ frame_needed = 0, uses_anonymous_args = 0
 398              		@ link register save eliminated.
 412:Generated_Source\PSoC5/isr_2.c ****     *isr_2_INTC_CLR_PD = isr_2__INTC_MASK;
 399              		.loc 1 412 0
 400 0000 0222     		movs	r2, #2
 401 0002 014B     		ldr	r3, .L42
 402 0004 1A60     		str	r2, [r3]
 403 0006 7047     		bx	lr
 404              	.L43:
 405              		.align	2
 406              	.L42:
 407 0008 80E200E0 		.word	-536812928
 408              		.cfi_endproc
 409              	.LFE76:
 410              		.size	isr_2_ClearPending, .-isr_2_ClearPending
 411              		.section	.rodata.str1.4,"aMS",%progbits,1
 412              		.align	2
 413              	.LC0:
 414 0000 50756C6C 		.ascii	"Pull It!\015\012\000"
 414      20497421 
 414      0D0A00
 415              		.text
 416              	.Letext0:
 417              		.file 2 "c:\\program files (x86)\\cypress\\psoc creator\\4.2\\psoc creator\\import\\gnu\\arm\\5.4.
 418              		.file 3 "c:\\program files (x86)\\cypress\\psoc creator\\4.2\\psoc creator\\import\\gnu\\arm\\5.4.
 419              		.file 4 "Generated_Source\\PSoC5/cytypes.h"
 420              		.file 5 "Generated_Source\\PSoC5\\UART.h"
 421              		.file 6 "Generated_Source\\PSoC5\\Timer_2.h"
 422              		.file 7 "Generated_Source\\PSoC5/core_cm3.h"