ARM GAS  C:\Users\sinow\AppData\Local\Temp\cc4WtJPy.s 			page 1


   1              		.syntax unified
   2              		.cpu cortex-m3
   3              		.fpu softvfp
   4              		.eabi_attribute 20, 1
   5              		.eabi_attribute 21, 1
   6              		.eabi_attribute 23, 3
   7              		.eabi_attribute 24, 1
   8              		.eabi_attribute 25, 1
   9              		.eabi_attribute 26, 1
  10              		.eabi_attribute 30, 1
  11              		.eabi_attribute 34, 1
  12              		.eabi_attribute 18, 4
  13              		.thumb
  14              		.syntax unified
  15              		.file	"isr_1.c"
  16              		.text
  17              	.Ltext0:
  18              		.cfi_sections	.debug_frame
  19              		.section	.text.isr_1_Interrupt,"ax",%progbits
  20              		.align	2
  21              		.global	isr_1_Interrupt
  22              		.thumb
  23              		.thumb_func
  24              		.type	isr_1_Interrupt, %function
  25              	isr_1_Interrupt:
  26              	.LFB67:
  27              		.file 1 "Generated_Source\\PSoC5\\isr_1.c"
   1:Generated_Source\PSoC5/isr_1.c **** /*******************************************************************************
   2:Generated_Source\PSoC5/isr_1.c **** * File Name: isr_1.c  
   3:Generated_Source\PSoC5/isr_1.c **** * Version 1.70
   4:Generated_Source\PSoC5/isr_1.c **** *
   5:Generated_Source\PSoC5/isr_1.c **** *  Description:
   6:Generated_Source\PSoC5/isr_1.c **** *   API for controlling the state of an interrupt.
   7:Generated_Source\PSoC5/isr_1.c **** *
   8:Generated_Source\PSoC5/isr_1.c **** *
   9:Generated_Source\PSoC5/isr_1.c **** *  Note:
  10:Generated_Source\PSoC5/isr_1.c **** *
  11:Generated_Source\PSoC5/isr_1.c **** ********************************************************************************
  12:Generated_Source\PSoC5/isr_1.c **** * Copyright 2008-2015, Cypress Semiconductor Corporation.  All rights reserved.
  13:Generated_Source\PSoC5/isr_1.c **** * You may use this file only in accordance with the license, terms, conditions, 
  14:Generated_Source\PSoC5/isr_1.c **** * disclaimers, and limitations in the end user license agreement accompanying 
  15:Generated_Source\PSoC5/isr_1.c **** * the software package with which this file was provided.
  16:Generated_Source\PSoC5/isr_1.c **** *******************************************************************************/
  17:Generated_Source\PSoC5/isr_1.c **** 
  18:Generated_Source\PSoC5/isr_1.c **** 
  19:Generated_Source\PSoC5/isr_1.c **** #include <cydevice_trm.h>
  20:Generated_Source\PSoC5/isr_1.c **** #include <CyLib.h>
  21:Generated_Source\PSoC5/isr_1.c **** #include <isr_1.h>
  22:Generated_Source\PSoC5/isr_1.c **** #include "cyapicallbacks.h"
  23:Generated_Source\PSoC5/isr_1.c **** 
  24:Generated_Source\PSoC5/isr_1.c **** #if !defined(isr_1__REMOVED) /* Check for removal by optimization */
  25:Generated_Source\PSoC5/isr_1.c **** 
  26:Generated_Source\PSoC5/isr_1.c **** /*******************************************************************************
  27:Generated_Source\PSoC5/isr_1.c **** *  Place your includes, defines and code here 
  28:Generated_Source\PSoC5/isr_1.c **** ********************************************************************************/
  29:Generated_Source\PSoC5/isr_1.c **** /* `#START isr_1_intc` */
  30:Generated_Source\PSoC5/isr_1.c **** #include "project.h"
ARM GAS  C:\Users\sinow\AppData\Local\Temp\cc4WtJPy.s 			page 2


  31:Generated_Source\PSoC5/isr_1.c **** #include "build_plot_str.h"
  32:Generated_Source\PSoC5/isr_1.c **** #include <stdio.h>
  33:Generated_Source\PSoC5/isr_1.c **** #include <stdlib.h>
  34:Generated_Source\PSoC5/isr_1.c **** 
  35:Generated_Source\PSoC5/isr_1.c **** #define FIXED_N         (15)
  36:Generated_Source\PSoC5/isr_1.c **** #define FIXED_ONE       (1<<FIXED_N)
  37:Generated_Source\PSoC5/isr_1.c **** #define FIXED_ONE_HALF  (FIXED_ONE >> 1)
  38:Generated_Source\PSoC5/isr_1.c **** 
  39:Generated_Source\PSoC5/isr_1.c **** #define SQR(x) ((x) * (x))
  40:Generated_Source\PSoC5/isr_1.c **** 
  41:Generated_Source\PSoC5/isr_1.c **** // Define w0 as 2PI/100 = PI/50
  42:Generated_Source\PSoC5/isr_1.c **** 
  43:Generated_Source\PSoC5/isr_1.c **** // cos(w0) ~ 1.0
  44:Generated_Source\PSoC5/isr_1.c **** // sin(w0) ~ w0, small angle approximation
  45:Generated_Source\PSoC5/isr_1.c **** #define COS_0   (FIXED_ONE)
  46:Generated_Source\PSoC5/isr_1.c **** #define SIN_0   ( (int) (FIXED_ONE * 3.1415926535897 / 50 + 0.5))
  47:Generated_Source\PSoC5/isr_1.c **** 
  48:Generated_Source\PSoC5/isr_1.c **** // Oscillator state variables
  49:Generated_Source\PSoC5/isr_1.c **** int64_t     x_real=FIXED_ONE;   // Initial value of x (complex number) is 1+j0, in fixed point
  50:Generated_Source\PSoC5/isr_1.c **** int64_t     x_imag=0;           // Initial value of x (complex number) is 1+j0, in fixed point
  51:Generated_Source\PSoC5/isr_1.c **** 
  52:Generated_Source\PSoC5/isr_1.c **** /* `#END` */
  53:Generated_Source\PSoC5/isr_1.c **** 
  54:Generated_Source\PSoC5/isr_1.c **** #ifndef CYINT_IRQ_BASE
  55:Generated_Source\PSoC5/isr_1.c **** #define CYINT_IRQ_BASE      16
  56:Generated_Source\PSoC5/isr_1.c **** #endif /* CYINT_IRQ_BASE */
  57:Generated_Source\PSoC5/isr_1.c **** #ifndef CYINT_VECT_TABLE
  58:Generated_Source\PSoC5/isr_1.c **** #define CYINT_VECT_TABLE    ((cyisraddress **) CYREG_NVIC_VECT_OFFSET)
  59:Generated_Source\PSoC5/isr_1.c **** #endif /* CYINT_VECT_TABLE */
  60:Generated_Source\PSoC5/isr_1.c **** 
  61:Generated_Source\PSoC5/isr_1.c **** /* Declared in startup, used to set unused interrupts to. */
  62:Generated_Source\PSoC5/isr_1.c **** CY_ISR_PROTO(IntDefaultHandler);
  63:Generated_Source\PSoC5/isr_1.c **** 
  64:Generated_Source\PSoC5/isr_1.c **** 
  65:Generated_Source\PSoC5/isr_1.c **** /*******************************************************************************
  66:Generated_Source\PSoC5/isr_1.c **** * Function Name: isr_1_Start
  67:Generated_Source\PSoC5/isr_1.c **** ********************************************************************************
  68:Generated_Source\PSoC5/isr_1.c **** *
  69:Generated_Source\PSoC5/isr_1.c **** * Summary:
  70:Generated_Source\PSoC5/isr_1.c **** *  Set up the interrupt and enable it. This function disables the interrupt, 
  71:Generated_Source\PSoC5/isr_1.c **** *  sets the default interrupt vector, sets the priority from the value in the
  72:Generated_Source\PSoC5/isr_1.c **** *  Design Wide Resources Interrupt Editor, then enables the interrupt to the 
  73:Generated_Source\PSoC5/isr_1.c **** *  interrupt controller.
  74:Generated_Source\PSoC5/isr_1.c **** *
  75:Generated_Source\PSoC5/isr_1.c **** * Parameters:  
  76:Generated_Source\PSoC5/isr_1.c **** *   None
  77:Generated_Source\PSoC5/isr_1.c **** *
  78:Generated_Source\PSoC5/isr_1.c **** * Return:
  79:Generated_Source\PSoC5/isr_1.c **** *   None
  80:Generated_Source\PSoC5/isr_1.c **** *
  81:Generated_Source\PSoC5/isr_1.c **** *******************************************************************************/
  82:Generated_Source\PSoC5/isr_1.c **** void isr_1_Start(void)
  83:Generated_Source\PSoC5/isr_1.c **** {
  84:Generated_Source\PSoC5/isr_1.c ****     /* For all we know the interrupt is active. */
  85:Generated_Source\PSoC5/isr_1.c ****     isr_1_Disable();
  86:Generated_Source\PSoC5/isr_1.c **** 
  87:Generated_Source\PSoC5/isr_1.c ****     /* Set the ISR to point to the isr_1 Interrupt. */
ARM GAS  C:\Users\sinow\AppData\Local\Temp\cc4WtJPy.s 			page 3


  88:Generated_Source\PSoC5/isr_1.c ****     isr_1_SetVector(&isr_1_Interrupt);
  89:Generated_Source\PSoC5/isr_1.c **** 
  90:Generated_Source\PSoC5/isr_1.c ****     /* Set the priority. */
  91:Generated_Source\PSoC5/isr_1.c ****     isr_1_SetPriority((uint8)isr_1_INTC_PRIOR_NUMBER);
  92:Generated_Source\PSoC5/isr_1.c **** 
  93:Generated_Source\PSoC5/isr_1.c ****     /* Enable it. */
  94:Generated_Source\PSoC5/isr_1.c ****     isr_1_Enable();
  95:Generated_Source\PSoC5/isr_1.c **** }
  96:Generated_Source\PSoC5/isr_1.c **** 
  97:Generated_Source\PSoC5/isr_1.c **** 
  98:Generated_Source\PSoC5/isr_1.c **** /*******************************************************************************
  99:Generated_Source\PSoC5/isr_1.c **** * Function Name: isr_1_StartEx
 100:Generated_Source\PSoC5/isr_1.c **** ********************************************************************************
 101:Generated_Source\PSoC5/isr_1.c **** *
 102:Generated_Source\PSoC5/isr_1.c **** * Summary:
 103:Generated_Source\PSoC5/isr_1.c **** *  Sets up the interrupt and enables it. This function disables the interrupt,
 104:Generated_Source\PSoC5/isr_1.c **** *  sets the interrupt vector based on the address passed in, sets the priority 
 105:Generated_Source\PSoC5/isr_1.c **** *  from the value in the Design Wide Resources Interrupt Editor, then enables 
 106:Generated_Source\PSoC5/isr_1.c **** *  the interrupt to the interrupt controller.
 107:Generated_Source\PSoC5/isr_1.c **** *  
 108:Generated_Source\PSoC5/isr_1.c **** *  When defining ISR functions, the CY_ISR and CY_ISR_PROTO macros should be 
 109:Generated_Source\PSoC5/isr_1.c **** *  used to provide consistent definition across compilers:
 110:Generated_Source\PSoC5/isr_1.c **** *  
 111:Generated_Source\PSoC5/isr_1.c **** *  Function definition example:
 112:Generated_Source\PSoC5/isr_1.c **** *   CY_ISR(MyISR)
 113:Generated_Source\PSoC5/isr_1.c **** *   {
 114:Generated_Source\PSoC5/isr_1.c **** *   }
 115:Generated_Source\PSoC5/isr_1.c **** *   Function prototype example:
 116:Generated_Source\PSoC5/isr_1.c **** *   CY_ISR_PROTO(MyISR);
 117:Generated_Source\PSoC5/isr_1.c **** *
 118:Generated_Source\PSoC5/isr_1.c **** * Parameters:  
 119:Generated_Source\PSoC5/isr_1.c **** *   address: Address of the ISR to set in the interrupt vector table.
 120:Generated_Source\PSoC5/isr_1.c **** *
 121:Generated_Source\PSoC5/isr_1.c **** * Return:
 122:Generated_Source\PSoC5/isr_1.c **** *   None
 123:Generated_Source\PSoC5/isr_1.c **** *
 124:Generated_Source\PSoC5/isr_1.c **** *******************************************************************************/
 125:Generated_Source\PSoC5/isr_1.c **** void isr_1_StartEx(cyisraddress address)
 126:Generated_Source\PSoC5/isr_1.c **** {
 127:Generated_Source\PSoC5/isr_1.c ****     /* For all we know the interrupt is active. */
 128:Generated_Source\PSoC5/isr_1.c ****     isr_1_Disable();
 129:Generated_Source\PSoC5/isr_1.c **** 
 130:Generated_Source\PSoC5/isr_1.c ****     /* Set the ISR to point to the isr_1 Interrupt. */
 131:Generated_Source\PSoC5/isr_1.c ****     isr_1_SetVector(address);
 132:Generated_Source\PSoC5/isr_1.c **** 
 133:Generated_Source\PSoC5/isr_1.c ****     /* Set the priority. */
 134:Generated_Source\PSoC5/isr_1.c ****     isr_1_SetPriority((uint8)isr_1_INTC_PRIOR_NUMBER);
 135:Generated_Source\PSoC5/isr_1.c **** 
 136:Generated_Source\PSoC5/isr_1.c ****     /* Enable it. */
 137:Generated_Source\PSoC5/isr_1.c ****     isr_1_Enable();
 138:Generated_Source\PSoC5/isr_1.c **** }
 139:Generated_Source\PSoC5/isr_1.c **** 
 140:Generated_Source\PSoC5/isr_1.c **** 
 141:Generated_Source\PSoC5/isr_1.c **** /*******************************************************************************
 142:Generated_Source\PSoC5/isr_1.c **** * Function Name: isr_1_Stop
 143:Generated_Source\PSoC5/isr_1.c **** ********************************************************************************
 144:Generated_Source\PSoC5/isr_1.c **** *
ARM GAS  C:\Users\sinow\AppData\Local\Temp\cc4WtJPy.s 			page 4


 145:Generated_Source\PSoC5/isr_1.c **** * Summary:
 146:Generated_Source\PSoC5/isr_1.c **** *   Disables and removes the interrupt.
 147:Generated_Source\PSoC5/isr_1.c **** *
 148:Generated_Source\PSoC5/isr_1.c **** * Parameters:  
 149:Generated_Source\PSoC5/isr_1.c **** *   None
 150:Generated_Source\PSoC5/isr_1.c **** *
 151:Generated_Source\PSoC5/isr_1.c **** * Return:
 152:Generated_Source\PSoC5/isr_1.c **** *   None
 153:Generated_Source\PSoC5/isr_1.c **** *
 154:Generated_Source\PSoC5/isr_1.c **** *******************************************************************************/
 155:Generated_Source\PSoC5/isr_1.c **** void isr_1_Stop(void)
 156:Generated_Source\PSoC5/isr_1.c **** {
 157:Generated_Source\PSoC5/isr_1.c ****     /* Disable this interrupt. */
 158:Generated_Source\PSoC5/isr_1.c ****     isr_1_Disable();
 159:Generated_Source\PSoC5/isr_1.c **** 
 160:Generated_Source\PSoC5/isr_1.c ****     /* Set the ISR to point to the passive one. */
 161:Generated_Source\PSoC5/isr_1.c ****     isr_1_SetVector(&IntDefaultHandler);
 162:Generated_Source\PSoC5/isr_1.c **** }
 163:Generated_Source\PSoC5/isr_1.c **** 
 164:Generated_Source\PSoC5/isr_1.c **** 
 165:Generated_Source\PSoC5/isr_1.c **** /*******************************************************************************
 166:Generated_Source\PSoC5/isr_1.c **** * Function Name: isr_1_Interrupt
 167:Generated_Source\PSoC5/isr_1.c **** ********************************************************************************
 168:Generated_Source\PSoC5/isr_1.c **** *
 169:Generated_Source\PSoC5/isr_1.c **** * Summary:
 170:Generated_Source\PSoC5/isr_1.c **** *   The default Interrupt Service Routine for isr_1.
 171:Generated_Source\PSoC5/isr_1.c **** *
 172:Generated_Source\PSoC5/isr_1.c **** *   Add custom code between the coments to keep the next version of this file
 173:Generated_Source\PSoC5/isr_1.c **** *   from over writting your code.
 174:Generated_Source\PSoC5/isr_1.c **** *
 175:Generated_Source\PSoC5/isr_1.c **** * Parameters:  
 176:Generated_Source\PSoC5/isr_1.c **** *
 177:Generated_Source\PSoC5/isr_1.c **** * Return:
 178:Generated_Source\PSoC5/isr_1.c **** *   None
 179:Generated_Source\PSoC5/isr_1.c **** *
 180:Generated_Source\PSoC5/isr_1.c **** *******************************************************************************/
 181:Generated_Source\PSoC5/isr_1.c **** CY_ISR(isr_1_Interrupt)
 182:Generated_Source\PSoC5/isr_1.c **** {
  28              		.loc 1 182 0
  29              		.cfi_startproc
  30              		@ args = 0, pretend = 0, frame = 72
  31              		@ frame_needed = 0, uses_anonymous_args = 0
  32 0000 2DE9F043 		push	{r4, r5, r6, r7, r8, r9, lr}
  33              		.cfi_def_cfa_offset 28
  34              		.cfi_offset 4, -28
  35              		.cfi_offset 5, -24
  36              		.cfi_offset 6, -20
  37              		.cfi_offset 7, -16
  38              		.cfi_offset 8, -12
  39              		.cfi_offset 9, -8
  40              		.cfi_offset 14, -4
  41 0004 93B0     		sub	sp, sp, #76
  42              		.cfi_def_cfa_offset 104
 183:Generated_Source\PSoC5/isr_1.c ****     #ifdef isr_1_INTERRUPT_INTERRUPT_CALLBACK
 184:Generated_Source\PSoC5/isr_1.c ****         isr_1_Interrupt_InterruptCallback();
 185:Generated_Source\PSoC5/isr_1.c ****     #endif /* isr_1_INTERRUPT_INTERRUPT_CALLBACK */ 
 186:Generated_Source\PSoC5/isr_1.c **** 
ARM GAS  C:\Users\sinow\AppData\Local\Temp\cc4WtJPy.s 			page 5


 187:Generated_Source\PSoC5/isr_1.c ****     /*  Place your Interrupt code here. */
 188:Generated_Source\PSoC5/isr_1.c ****     /* `#START isr_1_Interrupt` */
 189:Generated_Source\PSoC5/isr_1.c ****     char msg_str[67];
 190:Generated_Source\PSoC5/isr_1.c ****     
 191:Generated_Source\PSoC5/isr_1.c ****     int64_t     rsq;                // Holds square of real component
 192:Generated_Source\PSoC5/isr_1.c ****     int64_t     isq;                // Holds square of imag component
 193:Generated_Source\PSoC5/isr_1.c **** 
 194:Generated_Source\PSoC5/isr_1.c ****     int32_t     sgn_real;           // +/-1, based on x_real > 0 or < 0
 195:Generated_Source\PSoC5/isr_1.c ****     int32_t     sgn_imag;           // +/-1, based on x_imag > 0 or < 0
 196:Generated_Source\PSoC5/isr_1.c ****     
 197:Generated_Source\PSoC5/isr_1.c ****     x_real = x_real*COS_0 - x_imag*SIN_0;                           // QM.N * QM.N -> Q2M.2N
  43              		.loc 1 197 0
  44 0006 584A     		ldr	r2, .L9
  45 0008 1368     		ldr	r3, [r2]
  46 000a 5268     		ldr	r2, [r2, #4]
  47 000c D503     		lsls	r5, r2, #15
  48 000e 45EA5345 		orr	r5, r5, r3, lsr #17
  49 0012 DC03     		lsls	r4, r3, #15
  50 0014 554B     		ldr	r3, .L9+4
  51 0016 D3E90001 		ldrd	r0, [r3]
  52 001a 4242     		rsbs	r2, r0, #0
  53 001c 61EB4103 		sbc	r3, r1, r1, lsl #1
  54 0020 DE01     		lsls	r6, r3, #7
  55 0022 46EA5266 		orr	r6, r6, r2, lsr #25
  56 0026 D701     		lsls	r7, r2, #7
  57 0028 3A1A     		subs	r2, r7, r0
  58 002a 66EB0103 		sbc	r3, r6, r1
  59 002e 9E00     		lsls	r6, r3, #2
  60 0030 46EA9276 		orr	r6, r6, r2, lsr #30
  61 0034 9700     		lsls	r7, r2, #2
  62 0036 3A18     		adds	r2, r7, r0
  63 0038 46EB0103 		adc	r3, r6, r1
  64 003c 9E00     		lsls	r6, r3, #2
  65 003e 46EA9276 		orr	r6, r6, r2, lsr #30
  66 0042 9700     		lsls	r7, r2, #2
  67 0044 3A18     		adds	r2, r7, r0
  68 0046 46EB0103 		adc	r3, r6, r1
  69 004a A418     		adds	r4, r4, r2
  70 004c 5D41     		adcs	r5, r5, r3
 198:Generated_Source\PSoC5/isr_1.c ****     x_real = (x_real + FIXED_ONE_HALF) >> FIXED_N;  // convert back to QM.N, with rounding
  71              		.loc 1 198 0
  72 004e 14F58044 		adds	r4, r4, #16384
  73 0052 45F10005 		adc	r5, r5, #0
  74 0056 E20B     		lsrs	r2, r4, #15
  75 0058 42EA4542 		orr	r2, r2, r5, lsl #17
  76 005c EB13     		asrs	r3, r5, #15
 199:Generated_Source\PSoC5/isr_1.c ****     
 200:Generated_Source\PSoC5/isr_1.c ****     x_imag = x_real*SIN_0 +x_imag*COS_0;                           // QM.N * QM.N -> Q2M.2N
  77              		.loc 1 200 0
  78 005e 9C00     		lsls	r4, r3, #2
  79 0060 9600     		lsls	r6, r2, #2
  80 0062 44EA9277 		orr	r7, r4, r2, lsr #30
  81 0066 3D02     		lsls	r5, r7, #8
  82 0068 45EA1665 		orr	r5, r5, r6, lsr #24
  83 006c 3402     		lsls	r4, r6, #8
  84 006e A419     		adds	r4, r4, r6
  85 0070 7D41     		adcs	r5, r5, r7
ARM GAS  C:\Users\sinow\AppData\Local\Temp\cc4WtJPy.s 			page 6


  86 0072 A418     		adds	r4, r4, r2
  87 0074 5D41     		adcs	r5, r5, r3
  88 0076 2419     		adds	r4, r4, r4
  89 0078 6D41     		adcs	r5, r5, r5
  90 007a A418     		adds	r4, r4, r2
  91 007c 5D41     		adcs	r5, r5, r3
  92 007e CF03     		lsls	r7, r1, #15
  93 0080 47EA5047 		orr	r7, r7, r0, lsr #17
  94 0084 C603     		lsls	r6, r0, #15
  95 0086 A419     		adds	r4, r4, r6
  96 0088 7D41     		adcs	r5, r5, r7
 201:Generated_Source\PSoC5/isr_1.c ****     x_imag = (x_imag + FIXED_ONE_HALF) >> FIXED_N;  // convert back to QM.N, with rounding
  97              		.loc 1 201 0
  98 008a 14F58044 		adds	r4, r4, #16384
  99 008e 45F10005 		adc	r5, r5, #0
 100 0092 E00B     		lsrs	r0, r4, #15
 101 0094 40EA4540 		orr	r0, r0, r5, lsl #17
 102 0098 E913     		asrs	r1, r5, #15
 202:Generated_Source\PSoC5/isr_1.c ****     
 203:Generated_Source\PSoC5/isr_1.c ****     sgn_real = x_real >= 0 ? 1 : -1;                // signum of x_real
 103              		.loc 1 203 0
 104 009a 002A     		cmp	r2, #0
 105 009c 73F10004 		sbcs	r4, r3, #0
 106 00a0 02DB     		blt	.L6
 107 00a2 4FF0010E 		mov	lr, #1
 108 00a6 01E0     		b	.L2
 109              	.L6:
 110 00a8 4FF0FF3E 		mov	lr, #-1
 111              	.L2:
 112              	.LVL0:
 204:Generated_Source\PSoC5/isr_1.c ****     sgn_imag = x_imag >= 0 ? 1 : -1;                // signum of x_imag
 113              		.loc 1 204 0 discriminator 4
 114 00ac 0028     		cmp	r0, #0
 115 00ae 71F10004 		sbcs	r4, r1, #0
 116 00b2 02DB     		blt	.L7
 117              		.loc 1 204 0 is_stmt 0
 118 00b4 4FF0010C 		mov	ip, #1
 119 00b8 01E0     		b	.L3
 120              	.L7:
 121 00ba 4FF0FF3C 		mov	ip, #-1
 122              	.L3:
 123              	.LVL1:
 205:Generated_Source\PSoC5/isr_1.c ****     
 206:Generated_Source\PSoC5/isr_1.c ****     rsq = SQR(x_real);                              // QM.N * QM.N -> Q2M.2N
 124              		.loc 1 206 0 is_stmt 1 discriminator 4
 125 00be 02FB03F6 		mul	r6, r2, r3
 126 00c2 A2FB0245 		umull	r4, r5, r2, r2
 127 00c6 05EB4605 		add	r5, r5, r6, lsl #1
 128              	.LVL2:
 207:Generated_Source\PSoC5/isr_1.c ****     rsq = (rsq + FIXED_ONE_HALF) >> FIXED_N;        // convert back to QM.N, with rounding
 129              		.loc 1 207 0 discriminator 4
 130 00ca 14F58044 		adds	r4, r4, #16384
 131              	.LVL3:
 132 00ce 45F10005 		adc	r5, r5, #0
 133 00d2 4FEAD438 		lsr	r8, r4, #15
 134 00d6 48EA4548 		orr	r8, r8, r5, lsl #17
 135 00da 4FEAE539 		asr	r9, r5, #15
ARM GAS  C:\Users\sinow\AppData\Local\Temp\cc4WtJPy.s 			page 7


 136              	.LVL4:
 208:Generated_Source\PSoC5/isr_1.c ****     
 209:Generated_Source\PSoC5/isr_1.c ****     isq = SQR(x_imag);                              // QM.N * QM.N -> Q2M.2N
 137              		.loc 1 209 0 discriminator 4
 138 00de 00FB01F4 		mul	r4, r0, r1
 139 00e2 A0FB0067 		umull	r6, r7, r0, r0
 140 00e6 07EB4407 		add	r7, r7, r4, lsl #1
 141              	.LVL5:
 210:Generated_Source\PSoC5/isr_1.c ****     isq = (isq + FIXED_ONE_HALF) >> FIXED_N;        // convert back to QM.N, with rounding
 142              		.loc 1 210 0 discriminator 4
 143 00ea 16F58046 		adds	r6, r6, #16384
 144              	.LVL6:
 145 00ee 47F10007 		adc	r7, r7, #0
 146 00f2 F40B     		lsrs	r4, r6, #15
 147 00f4 44EA4744 		orr	r4, r4, r7, lsl #17
 148 00f8 FD13     		asrs	r5, r7, #15
 149              	.LVL7:
 211:Generated_Source\PSoC5/isr_1.c ****     
 212:Generated_Source\PSoC5/isr_1.c ****     // The goal is for 'x' to represent a value on the unit circle, i.e. complex magnitue
 213:Generated_Source\PSoC5/isr_1.c ****     // should be unity.  Because of quantization error (which will even occur with double
 214:Generated_Source\PSoC5/isr_1.c ****     // precision, need some way of avoiding collapsing to zero, or growing to infinity
 215:Generated_Source\PSoC5/isr_1.c ****     //
 216:Generated_Source\PSoC5/isr_1.c ****     // My quick and dirty solution is to push both real and imaginary part down toward
 217:Generated_Source\PSoC5/isr_1.c ****     // zero a smidgen if the magnitude is greater than one, and away from zero otherwise 
 218:Generated_Source\PSoC5/isr_1.c ****     if (rsq+isq > FIXED_ONE)
 150              		.loc 1 218 0 discriminator 4
 151 00fa 14EB0804 		adds	r4, r4, r8
 152              	.LVL8:
 153 00fe 45EB0905 		adc	r5, r5, r9
 154 0102 4FF40046 		mov	r6, #32768
 155 0106 0027     		movs	r7, #0
 156 0108 A642     		cmp	r6, r4
 157 010a 77EB0504 		sbcs	r4, r7, r5
 158 010e 0EDA     		bge	.L4
 219:Generated_Source\PSoC5/isr_1.c ****     {
 220:Generated_Source\PSoC5/isr_1.c ****         x_real -= sgn_real;
 159              		.loc 1 220 0
 160 0110 B2EB0E04 		subs	r4, r2, lr
 161 0114 63EBEE75 		sbc	r5, r3, lr, asr #31
 162 0118 134B     		ldr	r3, .L9
 163 011a C3E90045 		strd	r4, [r3]
 221:Generated_Source\PSoC5/isr_1.c ****         x_imag -= sgn_imag;
 164              		.loc 1 221 0
 165 011e B0EB0C00 		subs	r0, r0, ip
 166 0122 61EBEC71 		sbc	r1, r1, ip, asr #31
 167 0126 114B     		ldr	r3, .L9+4
 168 0128 C3E90001 		strd	r0, [r3]
 169 012c 0DE0     		b	.L5
 170              	.L4:
 222:Generated_Source\PSoC5/isr_1.c ****     }
 223:Generated_Source\PSoC5/isr_1.c ****     else
 224:Generated_Source\PSoC5/isr_1.c ****     {
 225:Generated_Source\PSoC5/isr_1.c ****         x_real += sgn_real;
 171              		.loc 1 225 0
 172 012e 12EB0E02 		adds	r2, r2, lr
 173 0132 43EBEE73 		adc	r3, r3, lr, asr #31
 174 0136 0C4C     		ldr	r4, .L9
ARM GAS  C:\Users\sinow\AppData\Local\Temp\cc4WtJPy.s 			page 8


 175 0138 C4E90023 		strd	r2, [r4]
 226:Generated_Source\PSoC5/isr_1.c ****         x_imag += sgn_imag;
 176              		.loc 1 226 0
 177 013c 10EB0C00 		adds	r0, r0, ip
 178 0140 41EBEC71 		adc	r1, r1, ip, asr #31
 179 0144 094B     		ldr	r3, .L9+4
 180 0146 C3E90001 		strd	r0, [r3]
 181              	.L5:
 227:Generated_Source\PSoC5/isr_1.c ****     }
 228:Generated_Source\PSoC5/isr_1.c **** 
 229:Generated_Source\PSoC5/isr_1.c ****     build_plot_str( msg_str, (int) x_real, (int) x_imag );      // Builds the string for output (at
 182              		.loc 1 229 0
 183 014a 084B     		ldr	r3, .L9+4
 184 014c 1A68     		ldr	r2, [r3]
 185 014e 064B     		ldr	r3, .L9
 186 0150 1968     		ldr	r1, [r3]
 187 0152 01A8     		add	r0, sp, #4
 188 0154 FFF7FEFF 		bl	build_plot_str
 189              	.LVL9:
 230:Generated_Source\PSoC5/isr_1.c ****     UART_PutString(msg_str);                                    // Sends string to serial port
 190              		.loc 1 230 0
 191 0158 01A8     		add	r0, sp, #4
 192 015a FFF7FEFF 		bl	UART_PutString
 193              	.LVL10:
 231:Generated_Source\PSoC5/isr_1.c ****     Timer_1_ReadStatusRegister();
 194              		.loc 1 231 0
 195 015e FFF7FEFF 		bl	Timer_1_ReadStatusRegister
 196              	.LVL11:
 232:Generated_Source\PSoC5/isr_1.c ****     /* `#END` */
 233:Generated_Source\PSoC5/isr_1.c **** }
 197              		.loc 1 233 0
 198 0162 13B0     		add	sp, sp, #76
 199              		.cfi_def_cfa_offset 28
 200              		@ sp needed
 201 0164 BDE8F083 		pop	{r4, r5, r6, r7, r8, r9, pc}
 202              	.LVL12:
 203              	.L10:
 204              		.align	2
 205              	.L9:
 206 0168 00000000 		.word	.LANCHOR0
 207 016c 00000000 		.word	.LANCHOR1
 208              		.cfi_endproc
 209              	.LFE67:
 210              		.size	isr_1_Interrupt, .-isr_1_Interrupt
 211              		.section	.text.isr_1_SetVector,"ax",%progbits
 212              		.align	2
 213              		.global	isr_1_SetVector
 214              		.thumb
 215              		.thumb_func
 216              		.type	isr_1_SetVector, %function
 217              	isr_1_SetVector:
 218              	.LFB68:
 234:Generated_Source\PSoC5/isr_1.c **** 
 235:Generated_Source\PSoC5/isr_1.c **** 
 236:Generated_Source\PSoC5/isr_1.c **** /*******************************************************************************
 237:Generated_Source\PSoC5/isr_1.c **** * Function Name: isr_1_SetVector
 238:Generated_Source\PSoC5/isr_1.c **** ********************************************************************************
ARM GAS  C:\Users\sinow\AppData\Local\Temp\cc4WtJPy.s 			page 9


 239:Generated_Source\PSoC5/isr_1.c **** *
 240:Generated_Source\PSoC5/isr_1.c **** * Summary:
 241:Generated_Source\PSoC5/isr_1.c **** *   Change the ISR vector for the Interrupt. Note calling isr_1_Start
 242:Generated_Source\PSoC5/isr_1.c **** *   will override any effect this method would have had. To set the vector 
 243:Generated_Source\PSoC5/isr_1.c **** *   before the component has been started use isr_1_StartEx instead.
 244:Generated_Source\PSoC5/isr_1.c **** * 
 245:Generated_Source\PSoC5/isr_1.c **** *   When defining ISR functions, the CY_ISR and CY_ISR_PROTO macros should be 
 246:Generated_Source\PSoC5/isr_1.c **** *   used to provide consistent definition across compilers:
 247:Generated_Source\PSoC5/isr_1.c **** *
 248:Generated_Source\PSoC5/isr_1.c **** *   Function definition example:
 249:Generated_Source\PSoC5/isr_1.c **** *   CY_ISR(MyISR)
 250:Generated_Source\PSoC5/isr_1.c **** *   {
 251:Generated_Source\PSoC5/isr_1.c **** *   }
 252:Generated_Source\PSoC5/isr_1.c **** *
 253:Generated_Source\PSoC5/isr_1.c **** *   Function prototype example:
 254:Generated_Source\PSoC5/isr_1.c **** *     CY_ISR_PROTO(MyISR);
 255:Generated_Source\PSoC5/isr_1.c **** *
 256:Generated_Source\PSoC5/isr_1.c **** * Parameters:
 257:Generated_Source\PSoC5/isr_1.c **** *   address: Address of the ISR to set in the interrupt vector table.
 258:Generated_Source\PSoC5/isr_1.c **** *
 259:Generated_Source\PSoC5/isr_1.c **** * Return:
 260:Generated_Source\PSoC5/isr_1.c **** *   None
 261:Generated_Source\PSoC5/isr_1.c **** *
 262:Generated_Source\PSoC5/isr_1.c **** *******************************************************************************/
 263:Generated_Source\PSoC5/isr_1.c **** void isr_1_SetVector(cyisraddress address)
 264:Generated_Source\PSoC5/isr_1.c **** {
 219              		.loc 1 264 0
 220              		.cfi_startproc
 221              		@ args = 0, pretend = 0, frame = 0
 222              		@ frame_needed = 0, uses_anonymous_args = 0
 223              		@ link register save eliminated.
 224              	.LVL13:
 265:Generated_Source\PSoC5/isr_1.c ****     cyisraddress * ramVectorTable;
 266:Generated_Source\PSoC5/isr_1.c **** 
 267:Generated_Source\PSoC5/isr_1.c ****     ramVectorTable = (cyisraddress *) *CYINT_VECT_TABLE;
 225              		.loc 1 267 0
 226 0000 014B     		ldr	r3, .L12
 227 0002 1B68     		ldr	r3, [r3]
 228              	.LVL14:
 268:Generated_Source\PSoC5/isr_1.c **** 
 269:Generated_Source\PSoC5/isr_1.c ****     ramVectorTable[CYINT_IRQ_BASE + (uint32)isr_1__INTC_NUMBER] = address;
 229              		.loc 1 269 0
 230 0004 1864     		str	r0, [r3, #64]
 231 0006 7047     		bx	lr
 232              	.L13:
 233              		.align	2
 234              	.L12:
 235 0008 08ED00E0 		.word	-536810232
 236              		.cfi_endproc
 237              	.LFE68:
 238              		.size	isr_1_SetVector, .-isr_1_SetVector
 239              		.section	.text.isr_1_GetVector,"ax",%progbits
 240              		.align	2
 241              		.global	isr_1_GetVector
 242              		.thumb
 243              		.thumb_func
 244              		.type	isr_1_GetVector, %function
ARM GAS  C:\Users\sinow\AppData\Local\Temp\cc4WtJPy.s 			page 10


 245              	isr_1_GetVector:
 246              	.LFB69:
 270:Generated_Source\PSoC5/isr_1.c **** }
 271:Generated_Source\PSoC5/isr_1.c **** 
 272:Generated_Source\PSoC5/isr_1.c **** 
 273:Generated_Source\PSoC5/isr_1.c **** /*******************************************************************************
 274:Generated_Source\PSoC5/isr_1.c **** * Function Name: isr_1_GetVector
 275:Generated_Source\PSoC5/isr_1.c **** ********************************************************************************
 276:Generated_Source\PSoC5/isr_1.c **** *
 277:Generated_Source\PSoC5/isr_1.c **** * Summary:
 278:Generated_Source\PSoC5/isr_1.c **** *   Gets the "address" of the current ISR vector for the Interrupt.
 279:Generated_Source\PSoC5/isr_1.c **** *
 280:Generated_Source\PSoC5/isr_1.c **** * Parameters:
 281:Generated_Source\PSoC5/isr_1.c **** *   None
 282:Generated_Source\PSoC5/isr_1.c **** *
 283:Generated_Source\PSoC5/isr_1.c **** * Return:
 284:Generated_Source\PSoC5/isr_1.c **** *   Address of the ISR in the interrupt vector table.
 285:Generated_Source\PSoC5/isr_1.c **** *
 286:Generated_Source\PSoC5/isr_1.c **** *******************************************************************************/
 287:Generated_Source\PSoC5/isr_1.c **** cyisraddress isr_1_GetVector(void)
 288:Generated_Source\PSoC5/isr_1.c **** {
 247              		.loc 1 288 0
 248              		.cfi_startproc
 249              		@ args = 0, pretend = 0, frame = 0
 250              		@ frame_needed = 0, uses_anonymous_args = 0
 251              		@ link register save eliminated.
 289:Generated_Source\PSoC5/isr_1.c ****     cyisraddress * ramVectorTable;
 290:Generated_Source\PSoC5/isr_1.c **** 
 291:Generated_Source\PSoC5/isr_1.c ****     ramVectorTable = (cyisraddress *) *CYINT_VECT_TABLE;
 252              		.loc 1 291 0
 253 0000 014B     		ldr	r3, .L15
 254 0002 1B68     		ldr	r3, [r3]
 255              	.LVL15:
 292:Generated_Source\PSoC5/isr_1.c **** 
 293:Generated_Source\PSoC5/isr_1.c ****     return ramVectorTable[CYINT_IRQ_BASE + (uint32)isr_1__INTC_NUMBER];
 294:Generated_Source\PSoC5/isr_1.c **** }
 256              		.loc 1 294 0
 257 0004 186C     		ldr	r0, [r3, #64]
 258 0006 7047     		bx	lr
 259              	.L16:
 260              		.align	2
 261              	.L15:
 262 0008 08ED00E0 		.word	-536810232
 263              		.cfi_endproc
 264              	.LFE69:
 265              		.size	isr_1_GetVector, .-isr_1_GetVector
 266              		.section	.text.isr_1_SetPriority,"ax",%progbits
 267              		.align	2
 268              		.global	isr_1_SetPriority
 269              		.thumb
 270              		.thumb_func
 271              		.type	isr_1_SetPriority, %function
 272              	isr_1_SetPriority:
 273              	.LFB70:
 295:Generated_Source\PSoC5/isr_1.c **** 
 296:Generated_Source\PSoC5/isr_1.c **** 
 297:Generated_Source\PSoC5/isr_1.c **** /*******************************************************************************
ARM GAS  C:\Users\sinow\AppData\Local\Temp\cc4WtJPy.s 			page 11


 298:Generated_Source\PSoC5/isr_1.c **** * Function Name: isr_1_SetPriority
 299:Generated_Source\PSoC5/isr_1.c **** ********************************************************************************
 300:Generated_Source\PSoC5/isr_1.c **** *
 301:Generated_Source\PSoC5/isr_1.c **** * Summary:
 302:Generated_Source\PSoC5/isr_1.c **** *   Sets the Priority of the Interrupt. 
 303:Generated_Source\PSoC5/isr_1.c **** *
 304:Generated_Source\PSoC5/isr_1.c **** *   Note calling isr_1_Start or isr_1_StartEx will 
 305:Generated_Source\PSoC5/isr_1.c **** *   override any effect this API would have had. This API should only be called
 306:Generated_Source\PSoC5/isr_1.c **** *   after isr_1_Start or isr_1_StartEx has been called. 
 307:Generated_Source\PSoC5/isr_1.c **** *   To set the initial priority for the component, use the Design-Wide Resources
 308:Generated_Source\PSoC5/isr_1.c **** *   Interrupt Editor.
 309:Generated_Source\PSoC5/isr_1.c **** *
 310:Generated_Source\PSoC5/isr_1.c **** *   Note This API has no effect on Non-maskable interrupt NMI).
 311:Generated_Source\PSoC5/isr_1.c **** *
 312:Generated_Source\PSoC5/isr_1.c **** * Parameters:
 313:Generated_Source\PSoC5/isr_1.c **** *   priority: Priority of the interrupt, 0 being the highest priority
 314:Generated_Source\PSoC5/isr_1.c **** *             PSoC 3 and PSoC 5LP: Priority is from 0 to 7.
 315:Generated_Source\PSoC5/isr_1.c **** *             PSoC 4: Priority is from 0 to 3.
 316:Generated_Source\PSoC5/isr_1.c **** *
 317:Generated_Source\PSoC5/isr_1.c **** * Return:
 318:Generated_Source\PSoC5/isr_1.c **** *   None
 319:Generated_Source\PSoC5/isr_1.c **** *
 320:Generated_Source\PSoC5/isr_1.c **** *******************************************************************************/
 321:Generated_Source\PSoC5/isr_1.c **** void isr_1_SetPriority(uint8 priority)
 322:Generated_Source\PSoC5/isr_1.c **** {
 274              		.loc 1 322 0
 275              		.cfi_startproc
 276              		@ args = 0, pretend = 0, frame = 0
 277              		@ frame_needed = 0, uses_anonymous_args = 0
 278              		@ link register save eliminated.
 279              	.LVL16:
 323:Generated_Source\PSoC5/isr_1.c ****     *isr_1_INTC_PRIOR = priority << 5;
 280              		.loc 1 323 0
 281 0000 4001     		lsls	r0, r0, #5
 282              	.LVL17:
 283 0002 C0B2     		uxtb	r0, r0
 284 0004 014B     		ldr	r3, .L18
 285 0006 1870     		strb	r0, [r3]
 286 0008 7047     		bx	lr
 287              	.L19:
 288 000a 00BF     		.align	2
 289              	.L18:
 290 000c 00E400E0 		.word	-536812544
 291              		.cfi_endproc
 292              	.LFE70:
 293              		.size	isr_1_SetPriority, .-isr_1_SetPriority
 294              		.section	.text.isr_1_GetPriority,"ax",%progbits
 295              		.align	2
 296              		.global	isr_1_GetPriority
 297              		.thumb
 298              		.thumb_func
 299              		.type	isr_1_GetPriority, %function
 300              	isr_1_GetPriority:
 301              	.LFB71:
 324:Generated_Source\PSoC5/isr_1.c **** }
 325:Generated_Source\PSoC5/isr_1.c **** 
 326:Generated_Source\PSoC5/isr_1.c **** 
ARM GAS  C:\Users\sinow\AppData\Local\Temp\cc4WtJPy.s 			page 12


 327:Generated_Source\PSoC5/isr_1.c **** /*******************************************************************************
 328:Generated_Source\PSoC5/isr_1.c **** * Function Name: isr_1_GetPriority
 329:Generated_Source\PSoC5/isr_1.c **** ********************************************************************************
 330:Generated_Source\PSoC5/isr_1.c **** *
 331:Generated_Source\PSoC5/isr_1.c **** * Summary:
 332:Generated_Source\PSoC5/isr_1.c **** *   Gets the Priority of the Interrupt.
 333:Generated_Source\PSoC5/isr_1.c **** *
 334:Generated_Source\PSoC5/isr_1.c **** * Parameters:
 335:Generated_Source\PSoC5/isr_1.c **** *   None
 336:Generated_Source\PSoC5/isr_1.c **** *
 337:Generated_Source\PSoC5/isr_1.c **** * Return:
 338:Generated_Source\PSoC5/isr_1.c **** *   Priority of the interrupt, 0 being the highest priority
 339:Generated_Source\PSoC5/isr_1.c **** *    PSoC 3 and PSoC 5LP: Priority is from 0 to 7.
 340:Generated_Source\PSoC5/isr_1.c **** *    PSoC 4: Priority is from 0 to 3.
 341:Generated_Source\PSoC5/isr_1.c **** *
 342:Generated_Source\PSoC5/isr_1.c **** *******************************************************************************/
 343:Generated_Source\PSoC5/isr_1.c **** uint8 isr_1_GetPriority(void)
 344:Generated_Source\PSoC5/isr_1.c **** {
 302              		.loc 1 344 0
 303              		.cfi_startproc
 304              		@ args = 0, pretend = 0, frame = 0
 305              		@ frame_needed = 0, uses_anonymous_args = 0
 306              		@ link register save eliminated.
 345:Generated_Source\PSoC5/isr_1.c ****     uint8 priority;
 346:Generated_Source\PSoC5/isr_1.c **** 
 347:Generated_Source\PSoC5/isr_1.c **** 
 348:Generated_Source\PSoC5/isr_1.c ****     priority = *isr_1_INTC_PRIOR >> 5;
 307              		.loc 1 348 0
 308 0000 014B     		ldr	r3, .L21
 309 0002 1878     		ldrb	r0, [r3]	@ zero_extendqisi2
 310              	.LVL18:
 349:Generated_Source\PSoC5/isr_1.c **** 
 350:Generated_Source\PSoC5/isr_1.c ****     return priority;
 351:Generated_Source\PSoC5/isr_1.c **** }
 311              		.loc 1 351 0
 312 0004 4009     		lsrs	r0, r0, #5
 313              	.LVL19:
 314 0006 7047     		bx	lr
 315              	.L22:
 316              		.align	2
 317              	.L21:
 318 0008 00E400E0 		.word	-536812544
 319              		.cfi_endproc
 320              	.LFE71:
 321              		.size	isr_1_GetPriority, .-isr_1_GetPriority
 322              		.section	.text.isr_1_Enable,"ax",%progbits
 323              		.align	2
 324              		.global	isr_1_Enable
 325              		.thumb
 326              		.thumb_func
 327              		.type	isr_1_Enable, %function
 328              	isr_1_Enable:
 329              	.LFB72:
 352:Generated_Source\PSoC5/isr_1.c **** 
 353:Generated_Source\PSoC5/isr_1.c **** 
 354:Generated_Source\PSoC5/isr_1.c **** /*******************************************************************************
 355:Generated_Source\PSoC5/isr_1.c **** * Function Name: isr_1_Enable
ARM GAS  C:\Users\sinow\AppData\Local\Temp\cc4WtJPy.s 			page 13


 356:Generated_Source\PSoC5/isr_1.c **** ********************************************************************************
 357:Generated_Source\PSoC5/isr_1.c **** *
 358:Generated_Source\PSoC5/isr_1.c **** * Summary:
 359:Generated_Source\PSoC5/isr_1.c **** *   Enables the interrupt to the interrupt controller. Do not call this function
 360:Generated_Source\PSoC5/isr_1.c **** *   unless ISR_Start() has been called or the functionality of the ISR_Start() 
 361:Generated_Source\PSoC5/isr_1.c **** *   function, which sets the vector and the priority, has been called.
 362:Generated_Source\PSoC5/isr_1.c **** *
 363:Generated_Source\PSoC5/isr_1.c **** * Parameters:
 364:Generated_Source\PSoC5/isr_1.c **** *   None
 365:Generated_Source\PSoC5/isr_1.c **** *
 366:Generated_Source\PSoC5/isr_1.c **** * Return:
 367:Generated_Source\PSoC5/isr_1.c **** *   None
 368:Generated_Source\PSoC5/isr_1.c **** *
 369:Generated_Source\PSoC5/isr_1.c **** *******************************************************************************/
 370:Generated_Source\PSoC5/isr_1.c **** void isr_1_Enable(void)
 371:Generated_Source\PSoC5/isr_1.c **** {
 330              		.loc 1 371 0
 331              		.cfi_startproc
 332              		@ args = 0, pretend = 0, frame = 0
 333              		@ frame_needed = 0, uses_anonymous_args = 0
 334              		@ link register save eliminated.
 372:Generated_Source\PSoC5/isr_1.c ****     /* Enable the general interrupt. */
 373:Generated_Source\PSoC5/isr_1.c ****     *isr_1_INTC_SET_EN = isr_1__INTC_MASK;
 335              		.loc 1 373 0
 336 0000 0122     		movs	r2, #1
 337 0002 014B     		ldr	r3, .L24
 338 0004 1A60     		str	r2, [r3]
 339 0006 7047     		bx	lr
 340              	.L25:
 341              		.align	2
 342              	.L24:
 343 0008 00E100E0 		.word	-536813312
 344              		.cfi_endproc
 345              	.LFE72:
 346              		.size	isr_1_Enable, .-isr_1_Enable
 347              		.section	.text.isr_1_GetState,"ax",%progbits
 348              		.align	2
 349              		.global	isr_1_GetState
 350              		.thumb
 351              		.thumb_func
 352              		.type	isr_1_GetState, %function
 353              	isr_1_GetState:
 354              	.LFB73:
 374:Generated_Source\PSoC5/isr_1.c **** }
 375:Generated_Source\PSoC5/isr_1.c **** 
 376:Generated_Source\PSoC5/isr_1.c **** 
 377:Generated_Source\PSoC5/isr_1.c **** /*******************************************************************************
 378:Generated_Source\PSoC5/isr_1.c **** * Function Name: isr_1_GetState
 379:Generated_Source\PSoC5/isr_1.c **** ********************************************************************************
 380:Generated_Source\PSoC5/isr_1.c **** *
 381:Generated_Source\PSoC5/isr_1.c **** * Summary:
 382:Generated_Source\PSoC5/isr_1.c **** *   Gets the state (enabled, disabled) of the Interrupt.
 383:Generated_Source\PSoC5/isr_1.c **** *
 384:Generated_Source\PSoC5/isr_1.c **** * Parameters:
 385:Generated_Source\PSoC5/isr_1.c **** *   None
 386:Generated_Source\PSoC5/isr_1.c **** *
 387:Generated_Source\PSoC5/isr_1.c **** * Return:
ARM GAS  C:\Users\sinow\AppData\Local\Temp\cc4WtJPy.s 			page 14


 388:Generated_Source\PSoC5/isr_1.c **** *   1 if enabled, 0 if disabled.
 389:Generated_Source\PSoC5/isr_1.c **** *
 390:Generated_Source\PSoC5/isr_1.c **** *******************************************************************************/
 391:Generated_Source\PSoC5/isr_1.c **** uint8 isr_1_GetState(void)
 392:Generated_Source\PSoC5/isr_1.c **** {
 355              		.loc 1 392 0
 356              		.cfi_startproc
 357              		@ args = 0, pretend = 0, frame = 0
 358              		@ frame_needed = 0, uses_anonymous_args = 0
 359              		@ link register save eliminated.
 393:Generated_Source\PSoC5/isr_1.c ****     /* Get the state of the general interrupt. */
 394:Generated_Source\PSoC5/isr_1.c ****     return ((*isr_1_INTC_SET_EN & (uint32)isr_1__INTC_MASK) != 0u) ? 1u:0u;
 360              		.loc 1 394 0
 361 0000 024B     		ldr	r3, .L27
 362 0002 1868     		ldr	r0, [r3]
 395:Generated_Source\PSoC5/isr_1.c **** }
 363              		.loc 1 395 0
 364 0004 00F00100 		and	r0, r0, #1
 365 0008 7047     		bx	lr
 366              	.L28:
 367 000a 00BF     		.align	2
 368              	.L27:
 369 000c 00E100E0 		.word	-536813312
 370              		.cfi_endproc
 371              	.LFE73:
 372              		.size	isr_1_GetState, .-isr_1_GetState
 373              		.section	.text.isr_1_Disable,"ax",%progbits
 374              		.align	2
 375              		.global	isr_1_Disable
 376              		.thumb
 377              		.thumb_func
 378              		.type	isr_1_Disable, %function
 379              	isr_1_Disable:
 380              	.LFB74:
 396:Generated_Source\PSoC5/isr_1.c **** 
 397:Generated_Source\PSoC5/isr_1.c **** 
 398:Generated_Source\PSoC5/isr_1.c **** /*******************************************************************************
 399:Generated_Source\PSoC5/isr_1.c **** * Function Name: isr_1_Disable
 400:Generated_Source\PSoC5/isr_1.c **** ********************************************************************************
 401:Generated_Source\PSoC5/isr_1.c **** *
 402:Generated_Source\PSoC5/isr_1.c **** * Summary:
 403:Generated_Source\PSoC5/isr_1.c **** *   Disables the Interrupt in the interrupt controller.
 404:Generated_Source\PSoC5/isr_1.c **** *
 405:Generated_Source\PSoC5/isr_1.c **** * Parameters:
 406:Generated_Source\PSoC5/isr_1.c **** *   None
 407:Generated_Source\PSoC5/isr_1.c **** *
 408:Generated_Source\PSoC5/isr_1.c **** * Return:
 409:Generated_Source\PSoC5/isr_1.c **** *   None
 410:Generated_Source\PSoC5/isr_1.c **** *
 411:Generated_Source\PSoC5/isr_1.c **** *******************************************************************************/
 412:Generated_Source\PSoC5/isr_1.c **** void isr_1_Disable(void)
 413:Generated_Source\PSoC5/isr_1.c **** {
 381              		.loc 1 413 0
 382              		.cfi_startproc
 383              		@ args = 0, pretend = 0, frame = 0
 384              		@ frame_needed = 0, uses_anonymous_args = 0
 385              		@ link register save eliminated.
ARM GAS  C:\Users\sinow\AppData\Local\Temp\cc4WtJPy.s 			page 15


 414:Generated_Source\PSoC5/isr_1.c ****     /* Disable the general interrupt. */
 415:Generated_Source\PSoC5/isr_1.c ****     *isr_1_INTC_CLR_EN = isr_1__INTC_MASK;
 386              		.loc 1 415 0
 387 0000 0122     		movs	r2, #1
 388 0002 014B     		ldr	r3, .L30
 389 0004 1A60     		str	r2, [r3]
 390 0006 7047     		bx	lr
 391              	.L31:
 392              		.align	2
 393              	.L30:
 394 0008 80E100E0 		.word	-536813184
 395              		.cfi_endproc
 396              	.LFE74:
 397              		.size	isr_1_Disable, .-isr_1_Disable
 398              		.section	.text.isr_1_Start,"ax",%progbits
 399              		.align	2
 400              		.global	isr_1_Start
 401              		.thumb
 402              		.thumb_func
 403              		.type	isr_1_Start, %function
 404              	isr_1_Start:
 405              	.LFB64:
  83:Generated_Source\PSoC5/isr_1.c ****     /* For all we know the interrupt is active. */
 406              		.loc 1 83 0
 407              		.cfi_startproc
 408              		@ args = 0, pretend = 0, frame = 0
 409              		@ frame_needed = 0, uses_anonymous_args = 0
 410 0000 08B5     		push	{r3, lr}
 411              		.cfi_def_cfa_offset 8
 412              		.cfi_offset 3, -8
 413              		.cfi_offset 14, -4
  85:Generated_Source\PSoC5/isr_1.c **** 
 414              		.loc 1 85 0
 415 0002 FFF7FEFF 		bl	isr_1_Disable
 416              	.LVL20:
  88:Generated_Source\PSoC5/isr_1.c **** 
 417              		.loc 1 88 0
 418 0006 0448     		ldr	r0, .L34
 419 0008 FFF7FEFF 		bl	isr_1_SetVector
 420              	.LVL21:
  91:Generated_Source\PSoC5/isr_1.c **** 
 421              		.loc 1 91 0
 422 000c 0420     		movs	r0, #4
 423 000e FFF7FEFF 		bl	isr_1_SetPriority
 424              	.LVL22:
  94:Generated_Source\PSoC5/isr_1.c **** }
 425              		.loc 1 94 0
 426 0012 FFF7FEFF 		bl	isr_1_Enable
 427              	.LVL23:
 428 0016 08BD     		pop	{r3, pc}
 429              	.L35:
 430              		.align	2
 431              	.L34:
 432 0018 00000000 		.word	isr_1_Interrupt
 433              		.cfi_endproc
 434              	.LFE64:
 435              		.size	isr_1_Start, .-isr_1_Start
ARM GAS  C:\Users\sinow\AppData\Local\Temp\cc4WtJPy.s 			page 16


 436              		.section	.text.isr_1_StartEx,"ax",%progbits
 437              		.align	2
 438              		.global	isr_1_StartEx
 439              		.thumb
 440              		.thumb_func
 441              		.type	isr_1_StartEx, %function
 442              	isr_1_StartEx:
 443              	.LFB65:
 126:Generated_Source\PSoC5/isr_1.c ****     /* For all we know the interrupt is active. */
 444              		.loc 1 126 0
 445              		.cfi_startproc
 446              		@ args = 0, pretend = 0, frame = 0
 447              		@ frame_needed = 0, uses_anonymous_args = 0
 448              	.LVL24:
 449 0000 10B5     		push	{r4, lr}
 450              		.cfi_def_cfa_offset 8
 451              		.cfi_offset 4, -8
 452              		.cfi_offset 14, -4
 453 0002 0446     		mov	r4, r0
 128:Generated_Source\PSoC5/isr_1.c **** 
 454              		.loc 1 128 0
 455 0004 FFF7FEFF 		bl	isr_1_Disable
 456              	.LVL25:
 131:Generated_Source\PSoC5/isr_1.c **** 
 457              		.loc 1 131 0
 458 0008 2046     		mov	r0, r4
 459 000a FFF7FEFF 		bl	isr_1_SetVector
 460              	.LVL26:
 134:Generated_Source\PSoC5/isr_1.c **** 
 461              		.loc 1 134 0
 462 000e 0420     		movs	r0, #4
 463 0010 FFF7FEFF 		bl	isr_1_SetPriority
 464              	.LVL27:
 137:Generated_Source\PSoC5/isr_1.c **** }
 465              		.loc 1 137 0
 466 0014 FFF7FEFF 		bl	isr_1_Enable
 467              	.LVL28:
 468 0018 10BD     		pop	{r4, pc}
 469              		.cfi_endproc
 470              	.LFE65:
 471              		.size	isr_1_StartEx, .-isr_1_StartEx
 472 001a 00BF     		.section	.text.isr_1_Stop,"ax",%progbits
 473              		.align	2
 474              		.global	isr_1_Stop
 475              		.thumb
 476              		.thumb_func
 477              		.type	isr_1_Stop, %function
 478              	isr_1_Stop:
 479              	.LFB66:
 156:Generated_Source\PSoC5/isr_1.c ****     /* Disable this interrupt. */
 480              		.loc 1 156 0
 481              		.cfi_startproc
 482              		@ args = 0, pretend = 0, frame = 0
 483              		@ frame_needed = 0, uses_anonymous_args = 0
 484 0000 08B5     		push	{r3, lr}
 485              		.cfi_def_cfa_offset 8
 486              		.cfi_offset 3, -8
ARM GAS  C:\Users\sinow\AppData\Local\Temp\cc4WtJPy.s 			page 17


 487              		.cfi_offset 14, -4
 158:Generated_Source\PSoC5/isr_1.c **** 
 488              		.loc 1 158 0
 489 0002 FFF7FEFF 		bl	isr_1_Disable
 490              	.LVL29:
 161:Generated_Source\PSoC5/isr_1.c **** }
 491              		.loc 1 161 0
 492 0006 0248     		ldr	r0, .L40
 493 0008 FFF7FEFF 		bl	isr_1_SetVector
 494              	.LVL30:
 495 000c 08BD     		pop	{r3, pc}
 496              	.L41:
 497 000e 00BF     		.align	2
 498              	.L40:
 499 0010 00000000 		.word	IntDefaultHandler
 500              		.cfi_endproc
 501              	.LFE66:
 502              		.size	isr_1_Stop, .-isr_1_Stop
 503              		.section	.text.isr_1_SetPending,"ax",%progbits
 504              		.align	2
 505              		.global	isr_1_SetPending
 506              		.thumb
 507              		.thumb_func
 508              		.type	isr_1_SetPending, %function
 509              	isr_1_SetPending:
 510              	.LFB75:
 416:Generated_Source\PSoC5/isr_1.c **** }
 417:Generated_Source\PSoC5/isr_1.c **** 
 418:Generated_Source\PSoC5/isr_1.c **** 
 419:Generated_Source\PSoC5/isr_1.c **** /*******************************************************************************
 420:Generated_Source\PSoC5/isr_1.c **** * Function Name: isr_1_SetPending
 421:Generated_Source\PSoC5/isr_1.c **** ********************************************************************************
 422:Generated_Source\PSoC5/isr_1.c **** *
 423:Generated_Source\PSoC5/isr_1.c **** * Summary:
 424:Generated_Source\PSoC5/isr_1.c **** *   Causes the Interrupt to enter the pending state, a software method of
 425:Generated_Source\PSoC5/isr_1.c **** *   generating the interrupt.
 426:Generated_Source\PSoC5/isr_1.c **** *
 427:Generated_Source\PSoC5/isr_1.c **** * Parameters:
 428:Generated_Source\PSoC5/isr_1.c **** *   None
 429:Generated_Source\PSoC5/isr_1.c **** *
 430:Generated_Source\PSoC5/isr_1.c **** * Return:
 431:Generated_Source\PSoC5/isr_1.c **** *   None
 432:Generated_Source\PSoC5/isr_1.c **** *
 433:Generated_Source\PSoC5/isr_1.c **** * Side Effects:
 434:Generated_Source\PSoC5/isr_1.c **** *   If interrupts are enabled and the interrupt is set up properly, the ISR is
 435:Generated_Source\PSoC5/isr_1.c **** *   entered (depending on the priority of this interrupt and other pending 
 436:Generated_Source\PSoC5/isr_1.c **** *   interrupts).
 437:Generated_Source\PSoC5/isr_1.c **** *
 438:Generated_Source\PSoC5/isr_1.c **** *******************************************************************************/
 439:Generated_Source\PSoC5/isr_1.c **** void isr_1_SetPending(void)
 440:Generated_Source\PSoC5/isr_1.c **** {
 511              		.loc 1 440 0
 512              		.cfi_startproc
 513              		@ args = 0, pretend = 0, frame = 0
 514              		@ frame_needed = 0, uses_anonymous_args = 0
 515              		@ link register save eliminated.
 441:Generated_Source\PSoC5/isr_1.c ****     *isr_1_INTC_SET_PD = isr_1__INTC_MASK;
ARM GAS  C:\Users\sinow\AppData\Local\Temp\cc4WtJPy.s 			page 18


 516              		.loc 1 441 0
 517 0000 0122     		movs	r2, #1
 518 0002 014B     		ldr	r3, .L43
 519 0004 1A60     		str	r2, [r3]
 520 0006 7047     		bx	lr
 521              	.L44:
 522              		.align	2
 523              	.L43:
 524 0008 00E200E0 		.word	-536813056
 525              		.cfi_endproc
 526              	.LFE75:
 527              		.size	isr_1_SetPending, .-isr_1_SetPending
 528              		.section	.text.isr_1_ClearPending,"ax",%progbits
 529              		.align	2
 530              		.global	isr_1_ClearPending
 531              		.thumb
 532              		.thumb_func
 533              		.type	isr_1_ClearPending, %function
 534              	isr_1_ClearPending:
 535              	.LFB76:
 442:Generated_Source\PSoC5/isr_1.c **** }
 443:Generated_Source\PSoC5/isr_1.c **** 
 444:Generated_Source\PSoC5/isr_1.c **** 
 445:Generated_Source\PSoC5/isr_1.c **** /*******************************************************************************
 446:Generated_Source\PSoC5/isr_1.c **** * Function Name: isr_1_ClearPending
 447:Generated_Source\PSoC5/isr_1.c **** ********************************************************************************
 448:Generated_Source\PSoC5/isr_1.c **** *
 449:Generated_Source\PSoC5/isr_1.c **** * Summary:
 450:Generated_Source\PSoC5/isr_1.c **** *   Clears a pending interrupt in the interrupt controller.
 451:Generated_Source\PSoC5/isr_1.c **** *
 452:Generated_Source\PSoC5/isr_1.c **** *   Note Some interrupt sources are clear-on-read and require the block 
 453:Generated_Source\PSoC5/isr_1.c **** *   interrupt/status register to be read/cleared with the appropriate block API 
 454:Generated_Source\PSoC5/isr_1.c **** *   (GPIO, UART, and so on). Otherwise the ISR will continue to remain in 
 455:Generated_Source\PSoC5/isr_1.c **** *   pending state even though the interrupt itself is cleared using this API.
 456:Generated_Source\PSoC5/isr_1.c **** *
 457:Generated_Source\PSoC5/isr_1.c **** * Parameters:
 458:Generated_Source\PSoC5/isr_1.c **** *   None
 459:Generated_Source\PSoC5/isr_1.c **** *
 460:Generated_Source\PSoC5/isr_1.c **** * Return:
 461:Generated_Source\PSoC5/isr_1.c **** *   None
 462:Generated_Source\PSoC5/isr_1.c **** *
 463:Generated_Source\PSoC5/isr_1.c **** *******************************************************************************/
 464:Generated_Source\PSoC5/isr_1.c **** void isr_1_ClearPending(void)
 465:Generated_Source\PSoC5/isr_1.c **** {
 536              		.loc 1 465 0
 537              		.cfi_startproc
 538              		@ args = 0, pretend = 0, frame = 0
 539              		@ frame_needed = 0, uses_anonymous_args = 0
 540              		@ link register save eliminated.
 466:Generated_Source\PSoC5/isr_1.c ****     *isr_1_INTC_CLR_PD = isr_1__INTC_MASK;
 541              		.loc 1 466 0
 542 0000 0122     		movs	r2, #1
 543 0002 014B     		ldr	r3, .L46
 544 0004 1A60     		str	r2, [r3]
 545 0006 7047     		bx	lr
 546              	.L47:
 547              		.align	2
ARM GAS  C:\Users\sinow\AppData\Local\Temp\cc4WtJPy.s 			page 19


 548              	.L46:
 549 0008 80E200E0 		.word	-536812928
 550              		.cfi_endproc
 551              	.LFE76:
 552              		.size	isr_1_ClearPending, .-isr_1_ClearPending
 553              		.global	x_imag
 554              		.global	x_real
 555              		.data
 556              		.align	3
 557              		.set	.LANCHOR0,. + 0
 558              		.type	x_real, %object
 559              		.size	x_real, 8
 560              	x_real:
 561 0000 00800000 		.word	32768
 562 0004 00000000 		.word	0
 563              		.bss
 564              		.align	3
 565              		.set	.LANCHOR1,. + 0
 566              		.type	x_imag, %object
 567              		.size	x_imag, 8
 568              	x_imag:
 569 0000 00000000 		.space	8
 569      00000000 
 570              		.text
 571              	.Letext0:
 572              		.file 2 "c:\\program files (x86)\\cypress\\psoc creator\\4.2\\psoc creator\\import\\gnu\\arm\\5.4.
 573              		.file 3 "c:\\program files (x86)\\cypress\\psoc creator\\4.2\\psoc creator\\import\\gnu\\arm\\5.4.
 574              		.file 4 "Generated_Source\\PSoC5/cytypes.h"
 575              		.file 5 "Generated_Source\\PSoC5/core_cm3.h"
 576              		.file 6 "./build_plot_str.h"
 577              		.file 7 "Generated_Source\\PSoC5\\UART.h"
 578              		.file 8 "Generated_Source\\PSoC5\\Timer_1.h"