ARM GAS  C:\Users\sinow\AppData\Local\Temp\cccB33Sd.s 			page 1


   1              		.syntax unified
   2              		.cpu cortex-m3
   3              		.fpu softvfp
   4              		.eabi_attribute 20, 1
   5              		.eabi_attribute 21, 1
   6              		.eabi_attribute 23, 3
   7              		.eabi_attribute 24, 1
   8              		.eabi_attribute 25, 1
   9              		.eabi_attribute 26, 1
  10              		.eabi_attribute 30, 2
  11              		.eabi_attribute 34, 1
  12              		.eabi_attribute 18, 4
  13              		.thumb
  14              		.syntax unified
  15              		.file	"cyfitter_cfg.c"
  16              		.text
  17              	.Ltext0:
  18              		.cfi_sections	.debug_frame
  19              		.section	.text.SetAnalogRoutingPumps,"ax",%progbits
  20              		.align	2
  21              		.global	SetAnalogRoutingPumps
  22              		.thumb
  23              		.thumb_func
  24              		.type	SetAnalogRoutingPumps, %function
  25              	SetAnalogRoutingPumps:
  26              	.LFB7:
  27              		.file 1 "Generated_Source\\PSoC5\\cyfitter_cfg.c"
   1:Generated_Source\PSoC5/cyfitter_cfg.c **** 
   2:Generated_Source\PSoC5/cyfitter_cfg.c **** /*******************************************************************************
   3:Generated_Source\PSoC5/cyfitter_cfg.c **** * File Name: cyfitter_cfg.c
   4:Generated_Source\PSoC5/cyfitter_cfg.c **** * 
   5:Generated_Source\PSoC5/cyfitter_cfg.c **** * PSoC Creator  4.2
   6:Generated_Source\PSoC5/cyfitter_cfg.c **** *
   7:Generated_Source\PSoC5/cyfitter_cfg.c **** * Description:
   8:Generated_Source\PSoC5/cyfitter_cfg.c **** * This file contains device initialization code.
   9:Generated_Source\PSoC5/cyfitter_cfg.c **** * Except for the user defined sections in CyClockStartupError(), this file should not be modified.
  10:Generated_Source\PSoC5/cyfitter_cfg.c **** * This file is automatically generated by PSoC Creator.
  11:Generated_Source\PSoC5/cyfitter_cfg.c **** *
  12:Generated_Source\PSoC5/cyfitter_cfg.c **** ********************************************************************************
  13:Generated_Source\PSoC5/cyfitter_cfg.c **** * Copyright (c) 2007-2018 Cypress Semiconductor.  All rights reserved.
  14:Generated_Source\PSoC5/cyfitter_cfg.c **** * You may use this file only in accordance with the license, terms, conditions, 
  15:Generated_Source\PSoC5/cyfitter_cfg.c **** * disclaimers, and limitations in the end user license agreement accompanying 
  16:Generated_Source\PSoC5/cyfitter_cfg.c **** * the software package with which this file was provided.
  17:Generated_Source\PSoC5/cyfitter_cfg.c **** ********************************************************************************/
  18:Generated_Source\PSoC5/cyfitter_cfg.c **** 
  19:Generated_Source\PSoC5/cyfitter_cfg.c **** #include <string.h>
  20:Generated_Source\PSoC5/cyfitter_cfg.c **** #include "cytypes.h"
  21:Generated_Source\PSoC5/cyfitter_cfg.c **** #include "cydevice_trm.h"
  22:Generated_Source\PSoC5/cyfitter_cfg.c **** #include "cyfitter.h"
  23:Generated_Source\PSoC5/cyfitter_cfg.c **** #include "CyLib.h"
  24:Generated_Source\PSoC5/cyfitter_cfg.c **** #include "cyfitter_cfg.h"
  25:Generated_Source\PSoC5/cyfitter_cfg.c **** #include "cyapicallbacks.h"
  26:Generated_Source\PSoC5/cyfitter_cfg.c **** 
  27:Generated_Source\PSoC5/cyfitter_cfg.c **** #define CY_NEED_CYCLOCKSTARTUPERROR 1
  28:Generated_Source\PSoC5/cyfitter_cfg.c **** 
  29:Generated_Source\PSoC5/cyfitter_cfg.c **** 
  30:Generated_Source\PSoC5/cyfitter_cfg.c **** #if defined(__GNUC__) || defined(__ARMCC_VERSION)
ARM GAS  C:\Users\sinow\AppData\Local\Temp\cccB33Sd.s 			page 2


  31:Generated_Source\PSoC5/cyfitter_cfg.c ****     #define CYPACKED 
  32:Generated_Source\PSoC5/cyfitter_cfg.c ****     #define CYPACKED_ATTR __attribute__ ((packed))
  33:Generated_Source\PSoC5/cyfitter_cfg.c ****     #define CYALIGNED __attribute__ ((aligned))
  34:Generated_Source\PSoC5/cyfitter_cfg.c ****     #define CY_CFG_UNUSED __attribute__ ((unused))
  35:Generated_Source\PSoC5/cyfitter_cfg.c ****     #ifndef CY_CFG_SECTION
  36:Generated_Source\PSoC5/cyfitter_cfg.c ****         #define CY_CFG_SECTION __attribute__ ((section(".psocinit")))
  37:Generated_Source\PSoC5/cyfitter_cfg.c ****     #endif
  38:Generated_Source\PSoC5/cyfitter_cfg.c ****     
  39:Generated_Source\PSoC5/cyfitter_cfg.c ****     #if defined(__ARMCC_VERSION)
  40:Generated_Source\PSoC5/cyfitter_cfg.c ****         #define CY_CFG_MEMORY_BARRIER() __memory_changed()
  41:Generated_Source\PSoC5/cyfitter_cfg.c ****     #else
  42:Generated_Source\PSoC5/cyfitter_cfg.c ****         #define CY_CFG_MEMORY_BARRIER() __sync_synchronize()
  43:Generated_Source\PSoC5/cyfitter_cfg.c ****     #endif
  44:Generated_Source\PSoC5/cyfitter_cfg.c ****     
  45:Generated_Source\PSoC5/cyfitter_cfg.c **** #elif defined(__ICCARM__)
  46:Generated_Source\PSoC5/cyfitter_cfg.c ****     #include <intrinsics.h>
  47:Generated_Source\PSoC5/cyfitter_cfg.c **** 
  48:Generated_Source\PSoC5/cyfitter_cfg.c ****     #define CYPACKED __packed
  49:Generated_Source\PSoC5/cyfitter_cfg.c ****     #define CYPACKED_ATTR 
  50:Generated_Source\PSoC5/cyfitter_cfg.c ****     #define CYALIGNED _Pragma("data_alignment=4")
  51:Generated_Source\PSoC5/cyfitter_cfg.c ****     #define CY_CFG_UNUSED _Pragma("diag_suppress=Pe177")
  52:Generated_Source\PSoC5/cyfitter_cfg.c ****     #define CY_CFG_SECTION _Pragma("location=\".psocinit\"")
  53:Generated_Source\PSoC5/cyfitter_cfg.c ****     
  54:Generated_Source\PSoC5/cyfitter_cfg.c ****     #define CY_CFG_MEMORY_BARRIER() __DMB()
  55:Generated_Source\PSoC5/cyfitter_cfg.c ****     
  56:Generated_Source\PSoC5/cyfitter_cfg.c **** #else
  57:Generated_Source\PSoC5/cyfitter_cfg.c ****     #error Unsupported toolchain
  58:Generated_Source\PSoC5/cyfitter_cfg.c **** #endif
  59:Generated_Source\PSoC5/cyfitter_cfg.c **** 
  60:Generated_Source\PSoC5/cyfitter_cfg.c **** #ifndef CYCODE
  61:Generated_Source\PSoC5/cyfitter_cfg.c ****     #define CYCODE
  62:Generated_Source\PSoC5/cyfitter_cfg.c **** #endif
  63:Generated_Source\PSoC5/cyfitter_cfg.c **** #ifndef CYDATA
  64:Generated_Source\PSoC5/cyfitter_cfg.c ****     #define CYDATA
  65:Generated_Source\PSoC5/cyfitter_cfg.c **** #endif
  66:Generated_Source\PSoC5/cyfitter_cfg.c **** #ifndef CYFAR
  67:Generated_Source\PSoC5/cyfitter_cfg.c ****     #define CYFAR
  68:Generated_Source\PSoC5/cyfitter_cfg.c **** #endif
  69:Generated_Source\PSoC5/cyfitter_cfg.c **** #ifndef CYXDATA
  70:Generated_Source\PSoC5/cyfitter_cfg.c ****     #define CYXDATA
  71:Generated_Source\PSoC5/cyfitter_cfg.c **** #endif
  72:Generated_Source\PSoC5/cyfitter_cfg.c **** 
  73:Generated_Source\PSoC5/cyfitter_cfg.c **** 
  74:Generated_Source\PSoC5/cyfitter_cfg.c **** CY_CFG_UNUSED
  75:Generated_Source\PSoC5/cyfitter_cfg.c **** static void CYMEMZERO(void *s, size_t n);
  76:Generated_Source\PSoC5/cyfitter_cfg.c **** CY_CFG_UNUSED
  77:Generated_Source\PSoC5/cyfitter_cfg.c **** static void CYMEMZERO(void *s, size_t n)
  78:Generated_Source\PSoC5/cyfitter_cfg.c **** {
  79:Generated_Source\PSoC5/cyfitter_cfg.c **** 	(void)memset(s, 0, n);
  80:Generated_Source\PSoC5/cyfitter_cfg.c **** }
  81:Generated_Source\PSoC5/cyfitter_cfg.c **** CY_CFG_UNUSED
  82:Generated_Source\PSoC5/cyfitter_cfg.c **** static void CYCONFIGCPY(void *dest, const void *src, size_t n);
  83:Generated_Source\PSoC5/cyfitter_cfg.c **** CY_CFG_UNUSED
  84:Generated_Source\PSoC5/cyfitter_cfg.c **** static void CYCONFIGCPY(void *dest, const void *src, size_t n)
  85:Generated_Source\PSoC5/cyfitter_cfg.c **** {
  86:Generated_Source\PSoC5/cyfitter_cfg.c **** 	(void)memcpy(dest, src, n);
  87:Generated_Source\PSoC5/cyfitter_cfg.c **** }
ARM GAS  C:\Users\sinow\AppData\Local\Temp\cccB33Sd.s 			page 3


  88:Generated_Source\PSoC5/cyfitter_cfg.c **** CY_CFG_UNUSED
  89:Generated_Source\PSoC5/cyfitter_cfg.c **** static void CYCONFIGCPYCODE(void *dest, const void *src, size_t n);
  90:Generated_Source\PSoC5/cyfitter_cfg.c **** CY_CFG_UNUSED
  91:Generated_Source\PSoC5/cyfitter_cfg.c **** static void CYCONFIGCPYCODE(void *dest, const void *src, size_t n)
  92:Generated_Source\PSoC5/cyfitter_cfg.c **** {
  93:Generated_Source\PSoC5/cyfitter_cfg.c **** 	(void)memcpy(dest, src, n);
  94:Generated_Source\PSoC5/cyfitter_cfg.c **** }
  95:Generated_Source\PSoC5/cyfitter_cfg.c **** 
  96:Generated_Source\PSoC5/cyfitter_cfg.c **** 
  97:Generated_Source\PSoC5/cyfitter_cfg.c **** 
  98:Generated_Source\PSoC5/cyfitter_cfg.c **** 
  99:Generated_Source\PSoC5/cyfitter_cfg.c **** /* Clock startup error codes                                                   */
 100:Generated_Source\PSoC5/cyfitter_cfg.c **** #define CYCLOCKSTART_NO_ERROR    0u
 101:Generated_Source\PSoC5/cyfitter_cfg.c **** #define CYCLOCKSTART_XTAL_ERROR  1u
 102:Generated_Source\PSoC5/cyfitter_cfg.c **** #define CYCLOCKSTART_32KHZ_ERROR 2u
 103:Generated_Source\PSoC5/cyfitter_cfg.c **** #define CYCLOCKSTART_PLL_ERROR   3u
 104:Generated_Source\PSoC5/cyfitter_cfg.c **** #define CYCLOCKSTART_FLL_ERROR   4u
 105:Generated_Source\PSoC5/cyfitter_cfg.c **** #define CYCLOCKSTART_WCO_ERROR   5u
 106:Generated_Source\PSoC5/cyfitter_cfg.c **** 
 107:Generated_Source\PSoC5/cyfitter_cfg.c **** 
 108:Generated_Source\PSoC5/cyfitter_cfg.c **** #ifdef CY_NEED_CYCLOCKSTARTUPERROR
 109:Generated_Source\PSoC5/cyfitter_cfg.c **** /*******************************************************************************
 110:Generated_Source\PSoC5/cyfitter_cfg.c **** * Function Name: CyClockStartupError
 111:Generated_Source\PSoC5/cyfitter_cfg.c **** ********************************************************************************
 112:Generated_Source\PSoC5/cyfitter_cfg.c **** * Summary:
 113:Generated_Source\PSoC5/cyfitter_cfg.c **** *  If an error is encountered during clock configuration (crystal startup error,
 114:Generated_Source\PSoC5/cyfitter_cfg.c **** *  PLL lock error, etc.), the system will end up here.  Unless reimplemented by
 115:Generated_Source\PSoC5/cyfitter_cfg.c **** *  the customer, this function will stop in an infinite loop.
 116:Generated_Source\PSoC5/cyfitter_cfg.c **** *
 117:Generated_Source\PSoC5/cyfitter_cfg.c **** * Parameters:
 118:Generated_Source\PSoC5/cyfitter_cfg.c **** *   void
 119:Generated_Source\PSoC5/cyfitter_cfg.c **** *
 120:Generated_Source\PSoC5/cyfitter_cfg.c **** * Return:
 121:Generated_Source\PSoC5/cyfitter_cfg.c **** *   void
 122:Generated_Source\PSoC5/cyfitter_cfg.c **** *
 123:Generated_Source\PSoC5/cyfitter_cfg.c **** *******************************************************************************/
 124:Generated_Source\PSoC5/cyfitter_cfg.c **** CY_CFG_UNUSED
 125:Generated_Source\PSoC5/cyfitter_cfg.c **** static void CyClockStartupError(uint8 errorCode);
 126:Generated_Source\PSoC5/cyfitter_cfg.c **** CY_CFG_UNUSED
 127:Generated_Source\PSoC5/cyfitter_cfg.c **** static void CyClockStartupError(uint8 errorCode)
 128:Generated_Source\PSoC5/cyfitter_cfg.c **** {
 129:Generated_Source\PSoC5/cyfitter_cfg.c ****     /* To remove the compiler warning if errorCode not used.                */
 130:Generated_Source\PSoC5/cyfitter_cfg.c ****     errorCode = errorCode;
 131:Generated_Source\PSoC5/cyfitter_cfg.c **** 
 132:Generated_Source\PSoC5/cyfitter_cfg.c ****     /* If we have a clock startup error (bad MHz crystal, PLL lock, etc.),  */
 133:Generated_Source\PSoC5/cyfitter_cfg.c ****     /* we will end up here to allow the customer to implement something to  */
 134:Generated_Source\PSoC5/cyfitter_cfg.c ****     /* deal with the clock condition.                                       */
 135:Generated_Source\PSoC5/cyfitter_cfg.c **** 
 136:Generated_Source\PSoC5/cyfitter_cfg.c **** #ifdef CY_CFG_CLOCK_STARTUP_ERROR_CALLBACK
 137:Generated_Source\PSoC5/cyfitter_cfg.c ****     CY_CFG_Clock_Startup_ErrorCallback();
 138:Generated_Source\PSoC5/cyfitter_cfg.c **** #else
 139:Generated_Source\PSoC5/cyfitter_cfg.c ****     /*  If not using CY_CFG_CLOCK_STARTUP_ERROR_CALLBACK, place your clock startup code here. */
 140:Generated_Source\PSoC5/cyfitter_cfg.c ****     /* `#START CyClockStartupError` */
 141:Generated_Source\PSoC5/cyfitter_cfg.c **** 
 142:Generated_Source\PSoC5/cyfitter_cfg.c **** 
 143:Generated_Source\PSoC5/cyfitter_cfg.c **** 
 144:Generated_Source\PSoC5/cyfitter_cfg.c ****     /* `#END` */
ARM GAS  C:\Users\sinow\AppData\Local\Temp\cccB33Sd.s 			page 4


 145:Generated_Source\PSoC5/cyfitter_cfg.c **** 
 146:Generated_Source\PSoC5/cyfitter_cfg.c ****     while(1) {}
 147:Generated_Source\PSoC5/cyfitter_cfg.c **** #endif /* CY_CFG_CLOCK_STARTUP_ERROR_CALLBACK */
 148:Generated_Source\PSoC5/cyfitter_cfg.c **** }
 149:Generated_Source\PSoC5/cyfitter_cfg.c **** #endif
 150:Generated_Source\PSoC5/cyfitter_cfg.c **** 
 151:Generated_Source\PSoC5/cyfitter_cfg.c **** #define CY_CFG_BASE_ADDR_COUNT 14u
 152:Generated_Source\PSoC5/cyfitter_cfg.c **** CYPACKED typedef struct
 153:Generated_Source\PSoC5/cyfitter_cfg.c **** {
 154:Generated_Source\PSoC5/cyfitter_cfg.c **** 	uint8 offset;
 155:Generated_Source\PSoC5/cyfitter_cfg.c **** 	uint8 value;
 156:Generated_Source\PSoC5/cyfitter_cfg.c **** } CYPACKED_ATTR cy_cfg_addrvalue_t;
 157:Generated_Source\PSoC5/cyfitter_cfg.c **** 
 158:Generated_Source\PSoC5/cyfitter_cfg.c **** #define cy_cfg_addr_table ((const uint32 CYFAR *)0x48000000u)
 159:Generated_Source\PSoC5/cyfitter_cfg.c **** #define cy_cfg_data_table ((const cy_cfg_addrvalue_t CYFAR *)0x48000038u)
 160:Generated_Source\PSoC5/cyfitter_cfg.c **** 
 161:Generated_Source\PSoC5/cyfitter_cfg.c **** /* IOPINS0_7 Address: CYREG_PRT12_DR Size (bytes): 10 */
 162:Generated_Source\PSoC5/cyfitter_cfg.c **** #define BS_IOPINS0_7_VAL ((const uint8 CYFAR *)0x48000174u)
 163:Generated_Source\PSoC5/cyfitter_cfg.c **** 
 164:Generated_Source\PSoC5/cyfitter_cfg.c **** /* IOPINS0_1 Address: CYREG_PRT1_DM0 Size (bytes): 8 */
 165:Generated_Source\PSoC5/cyfitter_cfg.c **** #define BS_IOPINS0_1_VAL ((const uint8 CYFAR *)0x48000180u)
 166:Generated_Source\PSoC5/cyfitter_cfg.c **** 
 167:Generated_Source\PSoC5/cyfitter_cfg.c **** 
 168:Generated_Source\PSoC5/cyfitter_cfg.c **** /*******************************************************************************
 169:Generated_Source\PSoC5/cyfitter_cfg.c **** * Function Name: cfg_write_bytes32
 170:Generated_Source\PSoC5/cyfitter_cfg.c **** ********************************************************************************
 171:Generated_Source\PSoC5/cyfitter_cfg.c **** * Summary:
 172:Generated_Source\PSoC5/cyfitter_cfg.c **** *  This function is used for setting up the chip configuration areas that
 173:Generated_Source\PSoC5/cyfitter_cfg.c **** *  contain relatively sparse data.
 174:Generated_Source\PSoC5/cyfitter_cfg.c **** *
 175:Generated_Source\PSoC5/cyfitter_cfg.c **** * Parameters:
 176:Generated_Source\PSoC5/cyfitter_cfg.c **** *   void
 177:Generated_Source\PSoC5/cyfitter_cfg.c **** *
 178:Generated_Source\PSoC5/cyfitter_cfg.c **** * Return:
 179:Generated_Source\PSoC5/cyfitter_cfg.c **** *   void
 180:Generated_Source\PSoC5/cyfitter_cfg.c **** *
 181:Generated_Source\PSoC5/cyfitter_cfg.c **** *******************************************************************************/
 182:Generated_Source\PSoC5/cyfitter_cfg.c **** static void cfg_write_bytes32(const uint32 addr_table[], const cy_cfg_addrvalue_t data_table[]);
 183:Generated_Source\PSoC5/cyfitter_cfg.c **** static void cfg_write_bytes32(const uint32 addr_table[], const cy_cfg_addrvalue_t data_table[])
 184:Generated_Source\PSoC5/cyfitter_cfg.c **** {
 185:Generated_Source\PSoC5/cyfitter_cfg.c **** 	/* For 32-bit little-endian architectures */
 186:Generated_Source\PSoC5/cyfitter_cfg.c **** 	uint32 i, j = 0u;
 187:Generated_Source\PSoC5/cyfitter_cfg.c **** 	for (i = 0u; i < CY_CFG_BASE_ADDR_COUNT; i++)
 188:Generated_Source\PSoC5/cyfitter_cfg.c **** 	{
 189:Generated_Source\PSoC5/cyfitter_cfg.c **** 		uint32 baseAddr = addr_table[i];
 190:Generated_Source\PSoC5/cyfitter_cfg.c **** 		uint8 count = (uint8)baseAddr;
 191:Generated_Source\PSoC5/cyfitter_cfg.c **** 		baseAddr &= 0xFFFFFF00u;
 192:Generated_Source\PSoC5/cyfitter_cfg.c **** 		while (count != 0u)
 193:Generated_Source\PSoC5/cyfitter_cfg.c **** 		{
 194:Generated_Source\PSoC5/cyfitter_cfg.c **** 			CY_SET_REG8((void *)(baseAddr + data_table[j].offset), data_table[j].value);
 195:Generated_Source\PSoC5/cyfitter_cfg.c **** 			j++;
 196:Generated_Source\PSoC5/cyfitter_cfg.c **** 			count--;
 197:Generated_Source\PSoC5/cyfitter_cfg.c **** 		}
 198:Generated_Source\PSoC5/cyfitter_cfg.c **** 	}
 199:Generated_Source\PSoC5/cyfitter_cfg.c **** }
 200:Generated_Source\PSoC5/cyfitter_cfg.c **** 
 201:Generated_Source\PSoC5/cyfitter_cfg.c **** /*******************************************************************************
ARM GAS  C:\Users\sinow\AppData\Local\Temp\cccB33Sd.s 			page 5


 202:Generated_Source\PSoC5/cyfitter_cfg.c **** * Function Name: ClockSetup
 203:Generated_Source\PSoC5/cyfitter_cfg.c **** ********************************************************************************
 204:Generated_Source\PSoC5/cyfitter_cfg.c **** *
 205:Generated_Source\PSoC5/cyfitter_cfg.c **** * Summary:
 206:Generated_Source\PSoC5/cyfitter_cfg.c **** *  Performs the initialization of all of the clocks in the device based on the
 207:Generated_Source\PSoC5/cyfitter_cfg.c **** *  settings in the Clock tab of the DWR.  This includes enabling the requested
 208:Generated_Source\PSoC5/cyfitter_cfg.c **** *  clocks and setting the necessary dividers to produce the desired frequency. 
 209:Generated_Source\PSoC5/cyfitter_cfg.c **** *
 210:Generated_Source\PSoC5/cyfitter_cfg.c **** * Parameters:
 211:Generated_Source\PSoC5/cyfitter_cfg.c **** *  void
 212:Generated_Source\PSoC5/cyfitter_cfg.c **** *
 213:Generated_Source\PSoC5/cyfitter_cfg.c **** * Return:
 214:Generated_Source\PSoC5/cyfitter_cfg.c **** *  void
 215:Generated_Source\PSoC5/cyfitter_cfg.c **** *
 216:Generated_Source\PSoC5/cyfitter_cfg.c **** *******************************************************************************/
 217:Generated_Source\PSoC5/cyfitter_cfg.c **** static void ClockSetup(void);
 218:Generated_Source\PSoC5/cyfitter_cfg.c **** static void ClockSetup(void)
 219:Generated_Source\PSoC5/cyfitter_cfg.c **** {
 220:Generated_Source\PSoC5/cyfitter_cfg.c **** 	uint32 timeout;
 221:Generated_Source\PSoC5/cyfitter_cfg.c **** 	uint8 pllLock;
 222:Generated_Source\PSoC5/cyfitter_cfg.c **** 
 223:Generated_Source\PSoC5/cyfitter_cfg.c **** 
 224:Generated_Source\PSoC5/cyfitter_cfg.c **** 	/* Configure Digital Clocks based on settings from Clock DWR */
 225:Generated_Source\PSoC5/cyfitter_cfg.c **** 	CY_SET_XTND_REG16((void CYFAR *)(CYREG_CLKDIST_DCFG0_CFG0), 0x0033u);
 226:Generated_Source\PSoC5/cyfitter_cfg.c **** 	CY_SET_XTND_REG8((void CYFAR *)(CYREG_CLKDIST_DCFG0_CFG0 + 0x2u), 0x18u);
 227:Generated_Source\PSoC5/cyfitter_cfg.c **** 
 228:Generated_Source\PSoC5/cyfitter_cfg.c **** 	/* Configure ILO based on settings from Clock DWR */
 229:Generated_Source\PSoC5/cyfitter_cfg.c **** 	CY_SET_XTND_REG8((void CYFAR *)(CYREG_SLOWCLK_ILO_CR0), 0x02u);
 230:Generated_Source\PSoC5/cyfitter_cfg.c **** 	CY_SET_XTND_REG8((void CYFAR *)(CYREG_CLKDIST_CR), 0x08u);
 231:Generated_Source\PSoC5/cyfitter_cfg.c **** 
 232:Generated_Source\PSoC5/cyfitter_cfg.c **** 	/* Configure IMO based on settings from Clock DWR */
 233:Generated_Source\PSoC5/cyfitter_cfg.c **** 	CY_SET_XTND_REG8((void CYFAR *)(CYREG_FASTCLK_IMO_CR), 0x03u);
 234:Generated_Source\PSoC5/cyfitter_cfg.c **** 	CY_SET_XTND_REG8((void CYFAR *)(CYREG_IMO_TR1), (CY_GET_XTND_REG8((void CYFAR *)CYREG_FLSHID_CUST_
 235:Generated_Source\PSoC5/cyfitter_cfg.c **** 
 236:Generated_Source\PSoC5/cyfitter_cfg.c **** 	/* Configure PLL based on settings from Clock DWR */
 237:Generated_Source\PSoC5/cyfitter_cfg.c **** 	CY_SET_XTND_REG16((void CYFAR *)(CYREG_FASTCLK_PLL_P), 0x0008u);
 238:Generated_Source\PSoC5/cyfitter_cfg.c **** 	CY_SET_XTND_REG16((void CYFAR *)(CYREG_FASTCLK_PLL_CFG0), 0x1251u);
 239:Generated_Source\PSoC5/cyfitter_cfg.c **** 	/* Wait up to 250us for the PLL to lock */
 240:Generated_Source\PSoC5/cyfitter_cfg.c **** 	pllLock = 0u;
 241:Generated_Source\PSoC5/cyfitter_cfg.c **** 	for (timeout = 250u / 10u; (timeout > 0u) && (pllLock != 0x03u); timeout--)
 242:Generated_Source\PSoC5/cyfitter_cfg.c **** 	{ 
 243:Generated_Source\PSoC5/cyfitter_cfg.c **** 		pllLock = 0x03u & ((uint8)((uint8)pllLock << 1) | ((CY_GET_XTND_REG8((void CYFAR *)CYREG_FASTCLK_
 244:Generated_Source\PSoC5/cyfitter_cfg.c **** 		CyDelayCycles(10u * 48u); /* Delay 10us based on 48MHz clock */
 245:Generated_Source\PSoC5/cyfitter_cfg.c **** 	}
 246:Generated_Source\PSoC5/cyfitter_cfg.c **** 	/* If we ran out of time the PLL didn't lock so go to the error function */
 247:Generated_Source\PSoC5/cyfitter_cfg.c **** 	if (timeout == 0u)
 248:Generated_Source\PSoC5/cyfitter_cfg.c **** 	{
 249:Generated_Source\PSoC5/cyfitter_cfg.c **** 		CyClockStartupError(CYCLOCKSTART_PLL_ERROR);
 250:Generated_Source\PSoC5/cyfitter_cfg.c **** 	}
 251:Generated_Source\PSoC5/cyfitter_cfg.c **** 
 252:Generated_Source\PSoC5/cyfitter_cfg.c **** 	/* Configure Bus/Master Clock based on settings from Clock DWR */
 253:Generated_Source\PSoC5/cyfitter_cfg.c **** 	CY_SET_XTND_REG16((void CYFAR *)(CYREG_CLKDIST_MSTR0), 0x0100u);
 254:Generated_Source\PSoC5/cyfitter_cfg.c **** 	CY_SET_XTND_REG8((void CYFAR *)(CYREG_CLKDIST_MSTR0), 0x07u);
 255:Generated_Source\PSoC5/cyfitter_cfg.c **** 	CY_SET_XTND_REG8((void CYFAR *)(CYREG_CLKDIST_BCFG0), 0x00u);
 256:Generated_Source\PSoC5/cyfitter_cfg.c **** 	CY_SET_XTND_REG8((void CYFAR *)(CYREG_CLKDIST_BCFG2), 0x48u);
 257:Generated_Source\PSoC5/cyfitter_cfg.c **** 	CY_SET_XTND_REG8((void CYFAR *)(CYREG_CLKDIST_MSTR0), 0x00u);
 258:Generated_Source\PSoC5/cyfitter_cfg.c **** 	CY_SET_XTND_REG8((void CYFAR *)(CYREG_CLKDIST_LD), 0x02u);
ARM GAS  C:\Users\sinow\AppData\Local\Temp\cccB33Sd.s 			page 6


 259:Generated_Source\PSoC5/cyfitter_cfg.c **** 
 260:Generated_Source\PSoC5/cyfitter_cfg.c **** 	CY_SET_XTND_REG8((void CYFAR *)(CYREG_PM_ACT_CFG2), ((CY_GET_XTND_REG8((void CYFAR *)CYREG_PM_ACT_
 261:Generated_Source\PSoC5/cyfitter_cfg.c **** }
 262:Generated_Source\PSoC5/cyfitter_cfg.c **** 
 263:Generated_Source\PSoC5/cyfitter_cfg.c **** 
 264:Generated_Source\PSoC5/cyfitter_cfg.c **** /* Analog API Functions */
 265:Generated_Source\PSoC5/cyfitter_cfg.c **** 
 266:Generated_Source\PSoC5/cyfitter_cfg.c **** 
 267:Generated_Source\PSoC5/cyfitter_cfg.c **** /*******************************************************************************
 268:Generated_Source\PSoC5/cyfitter_cfg.c **** * Function Name: AnalogSetDefault
 269:Generated_Source\PSoC5/cyfitter_cfg.c **** ********************************************************************************
 270:Generated_Source\PSoC5/cyfitter_cfg.c **** *
 271:Generated_Source\PSoC5/cyfitter_cfg.c **** * Summary:
 272:Generated_Source\PSoC5/cyfitter_cfg.c **** *  Sets up the analog portions of the chip to default values based on chip
 273:Generated_Source\PSoC5/cyfitter_cfg.c **** *  configuration options from the project.
 274:Generated_Source\PSoC5/cyfitter_cfg.c **** *
 275:Generated_Source\PSoC5/cyfitter_cfg.c **** * Parameters:
 276:Generated_Source\PSoC5/cyfitter_cfg.c **** *  void
 277:Generated_Source\PSoC5/cyfitter_cfg.c **** *
 278:Generated_Source\PSoC5/cyfitter_cfg.c **** * Return:
 279:Generated_Source\PSoC5/cyfitter_cfg.c **** *  void
 280:Generated_Source\PSoC5/cyfitter_cfg.c **** *
 281:Generated_Source\PSoC5/cyfitter_cfg.c **** *******************************************************************************/
 282:Generated_Source\PSoC5/cyfitter_cfg.c **** static void AnalogSetDefault(void);
 283:Generated_Source\PSoC5/cyfitter_cfg.c **** static void AnalogSetDefault(void)
 284:Generated_Source\PSoC5/cyfitter_cfg.c **** {
 285:Generated_Source\PSoC5/cyfitter_cfg.c **** 	uint8 bg_xover_inl_trim = CY_GET_XTND_REG8((void CYFAR *)(CYREG_FLSHID_MFG_CFG_BG_XOVER_INL_TRIM +
 286:Generated_Source\PSoC5/cyfitter_cfg.c **** 	CY_SET_XTND_REG8((void CYFAR *)(CYREG_BG_DFT0), (bg_xover_inl_trim & 0x07u));
 287:Generated_Source\PSoC5/cyfitter_cfg.c **** 	CY_SET_XTND_REG8((void CYFAR *)(CYREG_BG_DFT1), ((bg_xover_inl_trim >> 4) & 0x0Fu));
 288:Generated_Source\PSoC5/cyfitter_cfg.c **** 	CY_SET_XTND_REG8((void CYFAR *)CYREG_PUMP_CR0, 0x44u);
 289:Generated_Source\PSoC5/cyfitter_cfg.c **** }
 290:Generated_Source\PSoC5/cyfitter_cfg.c **** 
 291:Generated_Source\PSoC5/cyfitter_cfg.c **** 
 292:Generated_Source\PSoC5/cyfitter_cfg.c **** /*******************************************************************************
 293:Generated_Source\PSoC5/cyfitter_cfg.c **** * Function Name: SetAnalogRoutingPumps
 294:Generated_Source\PSoC5/cyfitter_cfg.c **** ********************************************************************************
 295:Generated_Source\PSoC5/cyfitter_cfg.c **** *
 296:Generated_Source\PSoC5/cyfitter_cfg.c **** * Summary:
 297:Generated_Source\PSoC5/cyfitter_cfg.c **** * Enables or disables the analog pumps feeding analog routing switches.
 298:Generated_Source\PSoC5/cyfitter_cfg.c **** * Intended to be called at startup, based on the Vdda system configuration;
 299:Generated_Source\PSoC5/cyfitter_cfg.c **** * may be called during operation when the user informs us that the Vdda voltage
 300:Generated_Source\PSoC5/cyfitter_cfg.c **** * crossed the pump threshold.
 301:Generated_Source\PSoC5/cyfitter_cfg.c **** *
 302:Generated_Source\PSoC5/cyfitter_cfg.c **** * Parameters:
 303:Generated_Source\PSoC5/cyfitter_cfg.c **** *  enabled - 1 to enable the pumps, 0 to disable the pumps
 304:Generated_Source\PSoC5/cyfitter_cfg.c **** *
 305:Generated_Source\PSoC5/cyfitter_cfg.c **** * Return:
 306:Generated_Source\PSoC5/cyfitter_cfg.c **** *  void
 307:Generated_Source\PSoC5/cyfitter_cfg.c **** *
 308:Generated_Source\PSoC5/cyfitter_cfg.c **** *******************************************************************************/
 309:Generated_Source\PSoC5/cyfitter_cfg.c **** void SetAnalogRoutingPumps(uint8 enabled)
 310:Generated_Source\PSoC5/cyfitter_cfg.c **** {
  28              		.loc 1 310 0
  29              		.cfi_startproc
  30              		@ args = 0, pretend = 0, frame = 0
  31              		@ frame_needed = 0, uses_anonymous_args = 0
  32              		@ link register save eliminated.
ARM GAS  C:\Users\sinow\AppData\Local\Temp\cccB33Sd.s 			page 7


  33              	.LVL0:
 311:Generated_Source\PSoC5/cyfitter_cfg.c **** 	uint8 regValue = CY_GET_XTND_REG8((void CYFAR *)CYREG_PUMP_CR0);
  34              		.loc 1 311 0
  35 0000 024A     		ldr	r2, .L2
  36 0002 1378     		ldrb	r3, [r2]	@ zero_extendqisi2
  37 0004 DBB2     		uxtb	r3, r3
  38              	.LVL1:
 312:Generated_Source\PSoC5/cyfitter_cfg.c **** 	if (enabled != 0u)
 313:Generated_Source\PSoC5/cyfitter_cfg.c **** 	{
 314:Generated_Source\PSoC5/cyfitter_cfg.c **** 		regValue |= 0x00u;
 315:Generated_Source\PSoC5/cyfitter_cfg.c **** 	}
 316:Generated_Source\PSoC5/cyfitter_cfg.c **** 	else
 317:Generated_Source\PSoC5/cyfitter_cfg.c **** 	{
 318:Generated_Source\PSoC5/cyfitter_cfg.c **** 		regValue &= (uint8)~0x00u;
 319:Generated_Source\PSoC5/cyfitter_cfg.c **** 	}
 320:Generated_Source\PSoC5/cyfitter_cfg.c **** 	CY_SET_XTND_REG8((void CYFAR *)CYREG_PUMP_CR0, regValue);
  39              		.loc 1 320 0
  40 0006 1370     		strb	r3, [r2]
  41 0008 7047     		bx	lr
  42              	.L3:
  43 000a 00BF     		.align	2
  44              	.L2:
  45 000c 76580040 		.word	1073764470
  46              		.cfi_endproc
  47              	.LFE7:
  48              		.size	SetAnalogRoutingPumps, .-SetAnalogRoutingPumps
  49              		.section	.text.cyfitter_cfg,"ax",%progbits
  50              		.align	2
  51              		.global	cyfitter_cfg
  52              		.thumb
  53              		.thumb_func
  54              		.type	cyfitter_cfg, %function
  55              	cyfitter_cfg:
  56              	.LFB8:
 321:Generated_Source\PSoC5/cyfitter_cfg.c **** }
 322:Generated_Source\PSoC5/cyfitter_cfg.c **** 
 323:Generated_Source\PSoC5/cyfitter_cfg.c **** 
 324:Generated_Source\PSoC5/cyfitter_cfg.c **** 
 325:Generated_Source\PSoC5/cyfitter_cfg.c **** 
 326:Generated_Source\PSoC5/cyfitter_cfg.c **** /*******************************************************************************
 327:Generated_Source\PSoC5/cyfitter_cfg.c **** * Function Name: cyfitter_cfg
 328:Generated_Source\PSoC5/cyfitter_cfg.c **** ********************************************************************************
 329:Generated_Source\PSoC5/cyfitter_cfg.c **** * Summary:
 330:Generated_Source\PSoC5/cyfitter_cfg.c **** *  This function is called by the start-up code for the selected device. It
 331:Generated_Source\PSoC5/cyfitter_cfg.c **** *  performs all of the necessary device configuration based on the design
 332:Generated_Source\PSoC5/cyfitter_cfg.c **** *  settings.  This includes settings from the Design Wide Resources (DWR) such
 333:Generated_Source\PSoC5/cyfitter_cfg.c **** *  as Clocks and Pins as well as any component configuration that is necessary.
 334:Generated_Source\PSoC5/cyfitter_cfg.c **** *
 335:Generated_Source\PSoC5/cyfitter_cfg.c **** * Parameters:
 336:Generated_Source\PSoC5/cyfitter_cfg.c **** *   void
 337:Generated_Source\PSoC5/cyfitter_cfg.c **** *
 338:Generated_Source\PSoC5/cyfitter_cfg.c **** * Return:
 339:Generated_Source\PSoC5/cyfitter_cfg.c **** *   void
 340:Generated_Source\PSoC5/cyfitter_cfg.c **** *
 341:Generated_Source\PSoC5/cyfitter_cfg.c **** *******************************************************************************/
 342:Generated_Source\PSoC5/cyfitter_cfg.c **** 
 343:Generated_Source\PSoC5/cyfitter_cfg.c **** void cyfitter_cfg(void)
ARM GAS  C:\Users\sinow\AppData\Local\Temp\cccB33Sd.s 			page 8


 344:Generated_Source\PSoC5/cyfitter_cfg.c **** {
  57              		.loc 1 344 0
  58              		.cfi_startproc
  59              		@ args = 0, pretend = 0, frame = 0
  60              		@ frame_needed = 0, uses_anonymous_args = 0
  61 0000 F8B5     		push	{r3, r4, r5, r6, r7, lr}
  62              		.cfi_def_cfa_offset 24
  63              		.cfi_offset 3, -24
  64              		.cfi_offset 4, -20
  65              		.cfi_offset 5, -16
  66              		.cfi_offset 6, -12
  67              		.cfi_offset 7, -8
  68              		.cfi_offset 14, -4
 345:Generated_Source\PSoC5/cyfitter_cfg.c **** #ifdef CYGlobalIntDisable
 346:Generated_Source\PSoC5/cyfitter_cfg.c **** 	/* Disable interrupts by default. Let user enable if/when they want. */
 347:Generated_Source\PSoC5/cyfitter_cfg.c **** 	CYGlobalIntDisable
  69              		.loc 1 347 0
  70              		.syntax unified
  71              	@ 347 "Generated_Source\PSoC5\cyfitter_cfg.c" 1
  72 0002 72B6     		CPSID   i
  73              	@ 0 "" 2
  74              		.thumb
  75              		.syntax unified
  76 0004 654E     		ldr	r6, .L27
 348:Generated_Source\PSoC5/cyfitter_cfg.c **** #endif
 349:Generated_Source\PSoC5/cyfitter_cfg.c **** 
 350:Generated_Source\PSoC5/cyfitter_cfg.c **** 	/* Enable/Disable Debug functionality based on settings from System DWR */
 351:Generated_Source\PSoC5/cyfitter_cfg.c **** 	CY_SET_XTND_REG8((void CYFAR *)CYREG_MLOGIC_DEBUG, (CY_GET_XTND_REG8((void CYFAR *)CYREG_MLOGIC_DE
  77              		.loc 1 351 0
  78 0006 664A     		ldr	r2, .L27+4
  79 0008 3546     		mov	r5, r6
  80 000a 1378     		ldrb	r3, [r2]	@ zero_extendqisi2
  81 000c 0024     		movs	r4, #0
  82 000e 43F00403 		orr	r3, r3, #4
  83 0012 1370     		strb	r3, [r2]
  84              	.LVL2:
  85              	.L5:
  86              	.LBB36:
  87              	.LBB37:
 352:Generated_Source\PSoC5/cyfitter_cfg.c **** 
 353:Generated_Source\PSoC5/cyfitter_cfg.c **** 	{
 354:Generated_Source\PSoC5/cyfitter_cfg.c **** 
 355:Generated_Source\PSoC5/cyfitter_cfg.c **** 		CYPACKED typedef struct {
 356:Generated_Source\PSoC5/cyfitter_cfg.c **** 			void CYFAR *address;
 357:Generated_Source\PSoC5/cyfitter_cfg.c **** 			uint16 size;
 358:Generated_Source\PSoC5/cyfitter_cfg.c **** 		} CYPACKED_ATTR cfg_memset_t;
 359:Generated_Source\PSoC5/cyfitter_cfg.c **** 
 360:Generated_Source\PSoC5/cyfitter_cfg.c **** 		static const cfg_memset_t CYCODE cfg_memset_list[] = {
 361:Generated_Source\PSoC5/cyfitter_cfg.c **** 			/* address, size */
 362:Generated_Source\PSoC5/cyfitter_cfg.c **** 			{(void CYFAR *)(CYREG_PRT0_DR), 16u},
 363:Generated_Source\PSoC5/cyfitter_cfg.c **** 			{(void CYFAR *)(CYREG_PRT2_DR), 80u},
 364:Generated_Source\PSoC5/cyfitter_cfg.c **** 			{(void CYFAR *)(CYREG_PRT15_DR), 16u},
 365:Generated_Source\PSoC5/cyfitter_cfg.c **** 			{(void CYFAR *)(CYDEV_UCFG_B0_P0_U0_BASE), 4096u},
 366:Generated_Source\PSoC5/cyfitter_cfg.c **** 			{(void CYFAR *)(CYDEV_UCFG_B1_P2_U0_BASE), 2048u},
 367:Generated_Source\PSoC5/cyfitter_cfg.c **** 			{(void CYFAR *)(CYDEV_UCFG_DSI0_BASE), 2560u},
 368:Generated_Source\PSoC5/cyfitter_cfg.c **** 			{(void CYFAR *)(CYDEV_UCFG_DSI12_BASE), 512u},
 369:Generated_Source\PSoC5/cyfitter_cfg.c **** 			{(void CYFAR *)(CYREG_BCTL0_MDCLK_EN), 32u},
ARM GAS  C:\Users\sinow\AppData\Local\Temp\cccB33Sd.s 			page 9


 370:Generated_Source\PSoC5/cyfitter_cfg.c **** 		};
 371:Generated_Source\PSoC5/cyfitter_cfg.c **** 
 372:Generated_Source\PSoC5/cyfitter_cfg.c **** 		uint8 CYDATA i;
 373:Generated_Source\PSoC5/cyfitter_cfg.c **** 
 374:Generated_Source\PSoC5/cyfitter_cfg.c **** 		/* Zero out critical memory blocks before beginning configuration */
 375:Generated_Source\PSoC5/cyfitter_cfg.c **** 		for (i = 0u; i < (sizeof(cfg_memset_list)/sizeof(cfg_memset_list[0])); i++)
 376:Generated_Source\PSoC5/cyfitter_cfg.c **** 		{
 377:Generated_Source\PSoC5/cyfitter_cfg.c **** 			const cfg_memset_t CYCODE * CYDATA ms = &cfg_memset_list[i];
 378:Generated_Source\PSoC5/cyfitter_cfg.c **** 			CYMEMZERO(ms->address, (size_t)(uint32)(ms->size));
  88              		.loc 1 378 0 discriminator 3
  89 0014 04EB4403 		add	r3, r4, r4, lsl #1
  90              	.LBB38:
  91              	.LBB39:
  79:Generated_Source\PSoC5/cyfitter_cfg.c **** }
  92              		.loc 1 79 0 discriminator 3
  93 0018 AA88     		ldrh	r2, [r5, #4]
  94              	.LVL3:
  95 001a 56F81300 		ldr	r0, [r6, r3, lsl #1]	@ unaligned
  96 001e 0134     		adds	r4, r4, #1
  97              	.LVL4:
  98 0020 0021     		movs	r1, #0
  99 0022 FFF7FEFF 		bl	memset
 100              	.LVL5:
 101              	.LBE39:
 102              	.LBE38:
 103              	.LBE37:
 375:Generated_Source\PSoC5/cyfitter_cfg.c **** 		{
 104              		.loc 1 375 0 discriminator 3
 105 0026 082C     		cmp	r4, #8
 106 0028 05F10605 		add	r5, r5, #6
 107 002c F2D1     		bne	.L5
 108 002e 5D4E     		ldr	r6, .L27+8
 109              	.LBB40:
 110              	.LBB41:
 187:Generated_Source\PSoC5/cyfitter_cfg.c **** 	{
 111              		.loc 1 187 0
 112 0030 5D4F     		ldr	r7, .L27+12
 113              	.LBE41:
 114              	.LBE40:
 115 0032 0025     		movs	r5, #0
 116              	.LVL6:
 117              	.L8:
 118              	.LBB44:
 119              	.LBB43:
 120              	.LBB42:
 189:Generated_Source\PSoC5/cyfitter_cfg.c **** 		uint8 count = (uint8)baseAddr;
 121              		.loc 1 189 0
 122 0034 56F8043F 		ldr	r3, [r6, #4]!
 123              	.LVL7:
 192:Generated_Source\PSoC5/cyfitter_cfg.c **** 		{
 124              		.loc 1 192 0
 125 0038 13F0FF0E 		ands	lr, r3, #255
 191:Generated_Source\PSoC5/cyfitter_cfg.c **** 		while (count != 0u)
 126              		.loc 1 191 0
 127 003c 23F0FF04 		bic	r4, r3, #255
 128              	.LVL8:
 192:Generated_Source\PSoC5/cyfitter_cfg.c **** 		{
ARM GAS  C:\Users\sinow\AppData\Local\Temp\cccB33Sd.s 			page 10


 129              		.loc 1 192 0
 130 0040 13D0     		beq	.L6
 131 0042 05F11053 		add	r3, r5, #603979776
 132              	.LVL9:
 133 0046 0EF1FF3E 		add	lr, lr, #-1
 134 004a 03F11D00 		add	r0, r3, #29
 135 004e 5FFA8EFE 		uxtb	lr, lr
 136 0052 7044     		add	r0, r0, lr
 137 0054 1C33     		adds	r3, r3, #28
 138 0056 4000     		lsls	r0, r0, #1
 139 0058 5B00     		lsls	r3, r3, #1
 140              	.LVL10:
 141              	.L7:
 194:Generated_Source\PSoC5/cyfitter_cfg.c **** 			j++;
 142              		.loc 1 194 0
 143 005a 1A78     		ldrb	r2, [r3]	@ zero_extendqisi2
 144 005c 5978     		ldrb	r1, [r3, #1]	@ zero_extendqisi2
 145 005e 0233     		adds	r3, r3, #2
 192:Generated_Source\PSoC5/cyfitter_cfg.c **** 		{
 146              		.loc 1 192 0
 147 0060 8342     		cmp	r3, r0
 194:Generated_Source\PSoC5/cyfitter_cfg.c **** 			j++;
 148              		.loc 1 194 0
 149 0062 1155     		strb	r1, [r2, r4]
 192:Generated_Source\PSoC5/cyfitter_cfg.c **** 		{
 150              		.loc 1 192 0
 151 0064 F9D1     		bne	.L7
 152 0066 0135     		adds	r5, r5, #1
 153 0068 7544     		add	r5, r5, lr
 154              	.L6:
 155              	.LVL11:
 156              	.LBE42:
 187:Generated_Source\PSoC5/cyfitter_cfg.c **** 	{
 157              		.loc 1 187 0
 158 006a BE42     		cmp	r6, r7
 159 006c E2D1     		bne	.L8
 160              	.LVL12:
 161              	.LBE43:
 162              	.LBE44:
 379:Generated_Source\PSoC5/cyfitter_cfg.c **** 		}
 380:Generated_Source\PSoC5/cyfitter_cfg.c **** 
 381:Generated_Source\PSoC5/cyfitter_cfg.c **** 		cfg_write_bytes32(cy_cfg_addr_table, cy_cfg_data_table);
 382:Generated_Source\PSoC5/cyfitter_cfg.c **** 
 383:Generated_Source\PSoC5/cyfitter_cfg.c **** 		/* Enable digital routing */
 384:Generated_Source\PSoC5/cyfitter_cfg.c **** 		CY_SET_XTND_REG8((void CYFAR *)CYREG_BCTL0_BANK_CTL, CY_GET_XTND_REG8((void CYFAR *)CYREG_BCTL0_B
 163              		.loc 1 384 0
 164 006e 4F48     		ldr	r0, .L27+16
 385:Generated_Source\PSoC5/cyfitter_cfg.c **** 		CY_SET_XTND_REG8((void CYFAR *)CYREG_BCTL1_BANK_CTL, CY_GET_XTND_REG8((void CYFAR *)CYREG_BCTL1_B
 165              		.loc 1 385 0
 166 0070 4F4A     		ldr	r2, .L27+20
 384:Generated_Source\PSoC5/cyfitter_cfg.c **** 		CY_SET_XTND_REG8((void CYFAR *)CYREG_BCTL1_BANK_CTL, CY_GET_XTND_REG8((void CYFAR *)CYREG_BCTL1_B
 167              		.loc 1 384 0
 168 0072 0378     		ldrb	r3, [r0]	@ zero_extendqisi2
 169              	.LBE36:
 170              	.LBB45:
 171              	.LBB46:
 238:Generated_Source\PSoC5/cyfitter_cfg.c **** 	/* Wait up to 250us for the PLL to lock */
ARM GAS  C:\Users\sinow\AppData\Local\Temp\cccB33Sd.s 			page 11


 172              		.loc 1 238 0
 173 0074 41F25124 		movw	r4, #4689
 174              	.LBE46:
 175              	.LBE45:
 176              	.LBB53:
 384:Generated_Source\PSoC5/cyfitter_cfg.c **** 		CY_SET_XTND_REG8((void CYFAR *)CYREG_BCTL1_BANK_CTL, CY_GET_XTND_REG8((void CYFAR *)CYREG_BCTL1_B
 177              		.loc 1 384 0
 178 0078 43F00203 		orr	r3, r3, #2
 179 007c 0370     		strb	r3, [r0]
 180              		.loc 1 385 0
 181 007e 1378     		ldrb	r3, [r2]	@ zero_extendqisi2
 386:Generated_Source\PSoC5/cyfitter_cfg.c **** 
 387:Generated_Source\PSoC5/cyfitter_cfg.c **** 		/* Enable UDB array */
 388:Generated_Source\PSoC5/cyfitter_cfg.c **** 		CY_SET_XTND_REG8((void CYFAR *)CYREG_PM_ACT_CFG0, CY_GET_XTND_REG8((void CYFAR *)CYREG_PM_ACT_CFG
 182              		.loc 1 388 0
 183 0080 4C49     		ldr	r1, .L27+24
 385:Generated_Source\PSoC5/cyfitter_cfg.c **** 
 184              		.loc 1 385 0
 185 0082 43F00203 		orr	r3, r3, #2
 186 0086 1370     		strb	r3, [r2]
 187              		.loc 1 388 0
 188 0088 0B78     		ldrb	r3, [r1]	@ zero_extendqisi2
 389:Generated_Source\PSoC5/cyfitter_cfg.c **** 		CY_SET_XTND_REG8((void CYFAR *)CYREG_PM_AVAIL_CR2, CY_GET_XTND_REG8((void CYFAR *)CYREG_PM_AVAIL_
 189              		.loc 1 389 0
 190 008a A0F58630 		sub	r0, r0, #68608
 388:Generated_Source\PSoC5/cyfitter_cfg.c **** 		CY_SET_XTND_REG8((void CYFAR *)CYREG_PM_AVAIL_CR2, CY_GET_XTND_REG8((void CYFAR *)CYREG_PM_AVAIL_
 191              		.loc 1 388 0
 192 008e 43F04003 		orr	r3, r3, #64
 193 0092 0B70     		strb	r3, [r1]
 194              		.loc 1 389 0
 195 0094 4138     		subs	r0, r0, #65
 196 0096 0178     		ldrb	r1, [r0]	@ zero_extendqisi2
 197              	.LBE53:
 198              	.LBB54:
 199              	.LBB55:
  86:Generated_Source\PSoC5/cyfitter_cfg.c **** }
 200              		.loc 1 86 0
 201 0098 474A     		ldr	r2, .L27+28
 202              	.LBE55:
 203              	.LBE54:
 204              	.LBB59:
 205              		.loc 1 389 0
 206 009a 41F01001 		orr	r1, r1, #16
 207              	.LBE59:
 208              	.LBB60:
 209              	.LBB56:
  86:Generated_Source\PSoC5/cyfitter_cfg.c **** }
 210              		.loc 1 86 0
 211 009e 474B     		ldr	r3, .L27+32
 212              	.LBE56:
 213              	.LBE60:
 214              	.LBB61:
 215              		.loc 1 389 0
 216 00a0 0170     		strb	r1, [r0]
 217              	.LVL13:
 218              	.LBE61:
 219              	.LBB62:
ARM GAS  C:\Users\sinow\AppData\Local\Temp\cccB33Sd.s 			page 12


 220              	.LBB57:
  86:Generated_Source\PSoC5/cyfitter_cfg.c **** }
 221              		.loc 1 86 0
 222 00a2 07CA     		ldmia	r2, {r0, r1, r2}
 223 00a4 03C3     		stmia	r3!, {r0, r1}
 224              	.LBE57:
 225              	.LBE62:
 390:Generated_Source\PSoC5/cyfitter_cfg.c **** 	}
 391:Generated_Source\PSoC5/cyfitter_cfg.c **** 
 392:Generated_Source\PSoC5/cyfitter_cfg.c **** 
 393:Generated_Source\PSoC5/cyfitter_cfg.c **** 	/* Perform second pass device configuration. These items must be configured in specific order afte
 394:Generated_Source\PSoC5/cyfitter_cfg.c **** 	CYCONFIGCPY((void CYFAR *)(CYREG_PRT12_DR), (const void CYFAR *)(BS_IOPINS0_7_VAL), 10u);
 395:Generated_Source\PSoC5/cyfitter_cfg.c **** 	CYCONFIGCPY((void CYFAR *)(CYREG_PRT1_DM0), (const void CYFAR *)(BS_IOPINS0_1_VAL), 8u);
 396:Generated_Source\PSoC5/cyfitter_cfg.c **** 	/* Switch Boost to the precision bandgap reference from its internal reference */
 397:Generated_Source\PSoC5/cyfitter_cfg.c **** 	CY_SET_REG8((void CYXDATA *)CYREG_BOOST_CR2, (CY_GET_REG8((void CYXDATA *)CYREG_BOOST_CR2) | 0x08u
 226              		.loc 1 397 0
 227 00a6 464D     		ldr	r5, .L27+36
 228              	.LBB63:
 229              	.LBB58:
  86:Generated_Source\PSoC5/cyfitter_cfg.c **** }
 230              		.loc 1 86 0
 231 00a8 1A80     		strh	r2, [r3]	@ movhi
 232              	.LVL14:
 233              	.LBE58:
 234              	.LBE63:
 235              		.loc 1 397 0
 236 00aa 2A78     		ldrb	r2, [r5]	@ zero_extendqisi2
 237              	.LBB64:
 238              	.LBB65:
  86:Generated_Source\PSoC5/cyfitter_cfg.c **** }
 239              		.loc 1 86 0
 240 00ac 454B     		ldr	r3, .L27+40
 241              	.LBE65:
 242              	.LBE64:
 398:Generated_Source\PSoC5/cyfitter_cfg.c **** 
 399:Generated_Source\PSoC5/cyfitter_cfg.c **** 	/* Set Flash Cycles based on max possible frequency in case a glitch occurs during ClockSetup(). *
 400:Generated_Source\PSoC5/cyfitter_cfg.c **** 	CY_SET_XTND_REG8((void CYFAR *)(CYREG_CACHE_CC_CTL), (((CYDEV_INSTRUCT_CACHE_ENABLED) != 0) ? 0x61
 243              		.loc 1 400 0
 244 00ae DFF850C1 		ldr	ip, .L27+100
 397:Generated_Source\PSoC5/cyfitter_cfg.c **** 
 245              		.loc 1 397 0
 246 00b2 42F00802 		orr	r2, r2, #8
 247              	.LBB69:
 248              	.LBB66:
  86:Generated_Source\PSoC5/cyfitter_cfg.c **** }
 249              		.loc 1 86 0
 250 00b6 03CB     		ldmia	r3!, {r0, r1}
 251              	.LBE66:
 252              	.LBE69:
 253              	.LBB70:
 254              	.LBB47:
 225:Generated_Source\PSoC5/cyfitter_cfg.c **** 	CY_SET_XTND_REG8((void CYFAR *)(CYREG_CLKDIST_DCFG0_CFG0 + 0x2u), 0x18u);
 255              		.loc 1 225 0
 256 00b8 DFF848E1 		ldr	lr, .L27+104
 257              	.LBE47:
 258              	.LBE70:
 397:Generated_Source\PSoC5/cyfitter_cfg.c **** 
ARM GAS  C:\Users\sinow\AppData\Local\Temp\cccB33Sd.s 			page 13


 259              		.loc 1 397 0
 260 00bc 2A70     		strb	r2, [r5]
 261              		.loc 1 400 0
 262 00be 6122     		movs	r2, #97
 263 00c0 8CF80020 		strb	r2, [ip]
 264              	.LBB71:
 265              	.LBB48:
 226:Generated_Source\PSoC5/cyfitter_cfg.c **** 
 266              		.loc 1 226 0
 267 00c4 404F     		ldr	r7, .L27+44
 229:Generated_Source\PSoC5/cyfitter_cfg.c **** 	CY_SET_XTND_REG8((void CYFAR *)(CYREG_CLKDIST_CR), 0x08u);
 268              		.loc 1 229 0
 269 00c6 414E     		ldr	r6, .L27+48
 225:Generated_Source\PSoC5/cyfitter_cfg.c **** 	CY_SET_XTND_REG8((void CYFAR *)(CYREG_CLKDIST_DCFG0_CFG0 + 0x2u), 0x18u);
 270              		.loc 1 225 0
 271 00c8 3322     		movs	r2, #51
 272 00ca AEF80020 		strh	r2, [lr]	@ movhi
 226:Generated_Source\PSoC5/cyfitter_cfg.c **** 
 273              		.loc 1 226 0
 274 00ce 1825     		movs	r5, #24
 229:Generated_Source\PSoC5/cyfitter_cfg.c **** 	CY_SET_XTND_REG8((void CYFAR *)(CYREG_CLKDIST_CR), 0x08u);
 275              		.loc 1 229 0
 276 00d0 0222     		movs	r2, #2
 226:Generated_Source\PSoC5/cyfitter_cfg.c **** 
 277              		.loc 1 226 0
 278 00d2 3D70     		strb	r5, [r7]
 233:Generated_Source\PSoC5/cyfitter_cfg.c **** 	CY_SET_XTND_REG8((void CYFAR *)(CYREG_IMO_TR1), (CY_GET_XTND_REG8((void CYFAR *)CYREG_FLSHID_CUST_
 279              		.loc 1 233 0
 280 00d4 3E4B     		ldr	r3, .L27+52
 229:Generated_Source\PSoC5/cyfitter_cfg.c **** 	CY_SET_XTND_REG8((void CYFAR *)(CYREG_CLKDIST_CR), 0x08u);
 281              		.loc 1 229 0
 282 00d6 3270     		strb	r2, [r6]
 230:Generated_Source\PSoC5/cyfitter_cfg.c **** 
 283              		.loc 1 230 0
 284 00d8 0826     		movs	r6, #8
 285 00da 4FF04022 		mov	r2, #1073758208
 286 00de 1670     		strb	r6, [r2]
 233:Generated_Source\PSoC5/cyfitter_cfg.c **** 	CY_SET_XTND_REG8((void CYFAR *)(CYREG_IMO_TR1), (CY_GET_XTND_REG8((void CYFAR *)CYREG_FLSHID_CUST_
 287              		.loc 1 233 0
 288 00e0 0322     		movs	r2, #3
 289 00e2 1A70     		strb	r2, [r3]
 234:Generated_Source\PSoC5/cyfitter_cfg.c **** 
 290              		.loc 1 234 0
 291 00e4 3B4B     		ldr	r3, .L27+56
 238:Generated_Source\PSoC5/cyfitter_cfg.c **** 	/* Wait up to 250us for the PLL to lock */
 292              		.loc 1 238 0
 293 00e6 07F5CF77 		add	r7, r7, #414
 234:Generated_Source\PSoC5/cyfitter_cfg.c **** 
 294              		.loc 1 234 0
 295 00ea 1B78     		ldrb	r3, [r3]	@ zero_extendqisi2
 296              	.LBE48:
 297              	.LBE71:
 298              	.LBB72:
 299              	.LBB67:
  86:Generated_Source\PSoC5/cyfitter_cfg.c **** }
 300              		.loc 1 86 0
 301 00ec 3A4A     		ldr	r2, .L27+60
ARM GAS  C:\Users\sinow\AppData\Local\Temp\cccB33Sd.s 			page 14


 302              	.LBE67:
 303              	.LBE72:
 304              	.LBB73:
 305              	.LBB49:
 234:Generated_Source\PSoC5/cyfitter_cfg.c **** 
 306              		.loc 1 234 0
 307 00ee DBB2     		uxtb	r3, r3
 308 00f0 87F88134 		strb	r3, [r7, #1153]
 237:Generated_Source\PSoC5/cyfitter_cfg.c **** 	CY_SET_XTND_REG16((void CYFAR *)(CYREG_FASTCLK_PLL_CFG0), 0x1251u);
 309              		.loc 1 237 0
 310 00f4 394B     		ldr	r3, .L27+64
 311 00f6 1E80     		strh	r6, [r3]	@ movhi
 238:Generated_Source\PSoC5/cyfitter_cfg.c **** 	/* Wait up to 250us for the PLL to lock */
 312              		.loc 1 238 0
 313 00f8 3C80     		strh	r4, [r7]	@ movhi
 243:Generated_Source\PSoC5/cyfitter_cfg.c **** 		CyDelayCycles(10u * 48u); /* Delay 10us based on 48MHz clock */
 314              		.loc 1 243 0
 315 00fa DC78     		ldrb	r4, [r3, #3]	@ zero_extendqisi2
 316 00fc 0333     		adds	r3, r3, #3
 317              	.LBE49:
 318              	.LBE73:
 319              	.LBB74:
 320              	.LBB68:
  86:Generated_Source\PSoC5/cyfitter_cfg.c **** }
 321              		.loc 1 86 0
 322 00fe 1060     		str	r0, [r2]	@ unaligned
 323 0100 5160     		str	r1, [r2, #4]	@ unaligned
 324              	.LVL15:
 325              	.LBE68:
 326              	.LBE74:
 327              	.LBB75:
 328              	.LBB50:
 244:Generated_Source\PSoC5/cyfitter_cfg.c **** 	}
 329              		.loc 1 244 0
 330 0102 4FF4F070 		mov	r0, #480
 243:Generated_Source\PSoC5/cyfitter_cfg.c **** 		CyDelayCycles(10u * 48u); /* Delay 10us based on 48MHz clock */
 331              		.loc 1 243 0
 332 0106 04F00104 		and	r4, r4, #1
 333              	.LVL16:
 334 010a 1E46     		mov	r6, r3
 244:Generated_Source\PSoC5/cyfitter_cfg.c **** 	}
 335              		.loc 1 244 0
 336 010c FFF7FEFF 		bl	CyDelayCycles
 337              	.LVL17:
 338 0110 01E0     		b	.L10
 339              	.L26:
 241:Generated_Source\PSoC5/cyfitter_cfg.c **** 	{ 
 340              		.loc 1 241 0
 341 0112 032C     		cmp	r4, #3
 342 0114 0DD0     		beq	.L25
 343              	.L10:
 243:Generated_Source\PSoC5/cyfitter_cfg.c **** 		CyDelayCycles(10u * 48u); /* Delay 10us based on 48MHz clock */
 344              		.loc 1 243 0
 345 0116 3378     		ldrb	r3, [r6]	@ zero_extendqisi2
 244:Generated_Source\PSoC5/cyfitter_cfg.c **** 	}
 346              		.loc 1 244 0
 347 0118 4FF4F070 		mov	r0, #480
ARM GAS  C:\Users\sinow\AppData\Local\Temp\cccB33Sd.s 			page 15


 243:Generated_Source\PSoC5/cyfitter_cfg.c **** 		CyDelayCycles(10u * 48u); /* Delay 10us based on 48MHz clock */
 348              		.loc 1 243 0
 349 011c 03F00103 		and	r3, r3, #1
 350 0120 43EA4404 		orr	r4, r3, r4, lsl #1
 351              	.LVL18:
 244:Generated_Source\PSoC5/cyfitter_cfg.c **** 	}
 352              		.loc 1 244 0
 353 0124 FFF7FEFF 		bl	CyDelayCycles
 354              	.LVL19:
 241:Generated_Source\PSoC5/cyfitter_cfg.c **** 	{ 
 355              		.loc 1 241 0
 356 0128 013D     		subs	r5, r5, #1
 243:Generated_Source\PSoC5/cyfitter_cfg.c **** 		CyDelayCycles(10u * 48u); /* Delay 10us based on 48MHz clock */
 357              		.loc 1 243 0
 358 012a 04F00304 		and	r4, r4, #3
 359              	.LVL20:
 241:Generated_Source\PSoC5/cyfitter_cfg.c **** 	{ 
 360              		.loc 1 241 0
 361 012e F0D1     		bne	.L26
 362              	.L9:
 363 0130 FEE7     		b	.L9
 364              	.L25:
 253:Generated_Source\PSoC5/cyfitter_cfg.c **** 	CY_SET_XTND_REG8((void CYFAR *)(CYREG_CLKDIST_MSTR0), 0x07u);
 365              		.loc 1 253 0
 366 0132 2B4B     		ldr	r3, .L27+68
 256:Generated_Source\PSoC5/cyfitter_cfg.c **** 	CY_SET_XTND_REG8((void CYFAR *)(CYREG_CLKDIST_MSTR0), 0x00u);
 367              		.loc 1 256 0
 368 0134 2B4D     		ldr	r5, .L27+72
 255:Generated_Source\PSoC5/cyfitter_cfg.c **** 	CY_SET_XTND_REG8((void CYFAR *)(CYREG_CLKDIST_BCFG2), 0x48u);
 369              		.loc 1 255 0
 370 0136 2C4F     		ldr	r7, .L27+76
 258:Generated_Source\PSoC5/cyfitter_cfg.c **** 
 371              		.loc 1 258 0
 372 0138 2C48     		ldr	r0, .L27+80
 253:Generated_Source\PSoC5/cyfitter_cfg.c **** 	CY_SET_XTND_REG8((void CYFAR *)(CYREG_CLKDIST_MSTR0), 0x07u);
 373              		.loc 1 253 0
 374 013a 4FF48074 		mov	r4, #256
 375              	.LVL21:
 254:Generated_Source\PSoC5/cyfitter_cfg.c **** 	CY_SET_XTND_REG8((void CYFAR *)(CYREG_CLKDIST_BCFG0), 0x00u);
 376              		.loc 1 254 0
 377 013e 0722     		movs	r2, #7
 253:Generated_Source\PSoC5/cyfitter_cfg.c **** 	CY_SET_XTND_REG8((void CYFAR *)(CYREG_CLKDIST_MSTR0), 0x07u);
 378              		.loc 1 253 0
 379 0140 1C80     		strh	r4, [r3]	@ movhi
 255:Generated_Source\PSoC5/cyfitter_cfg.c **** 	CY_SET_XTND_REG8((void CYFAR *)(CYREG_CLKDIST_BCFG2), 0x48u);
 380              		.loc 1 255 0
 381 0142 0021     		movs	r1, #0
 254:Generated_Source\PSoC5/cyfitter_cfg.c **** 	CY_SET_XTND_REG8((void CYFAR *)(CYREG_CLKDIST_BCFG0), 0x00u);
 382              		.loc 1 254 0
 383 0144 1A70     		strb	r2, [r3]
 256:Generated_Source\PSoC5/cyfitter_cfg.c **** 	CY_SET_XTND_REG8((void CYFAR *)(CYREG_CLKDIST_MSTR0), 0x00u);
 384              		.loc 1 256 0
 385 0146 4826     		movs	r6, #72
 260:Generated_Source\PSoC5/cyfitter_cfg.c **** }
 386              		.loc 1 260 0
 387 0148 294A     		ldr	r2, .L27+84
 258:Generated_Source\PSoC5/cyfitter_cfg.c **** 
ARM GAS  C:\Users\sinow\AppData\Local\Temp\cccB33Sd.s 			page 16


 388              		.loc 1 258 0
 389 014a 0224     		movs	r4, #2
 255:Generated_Source\PSoC5/cyfitter_cfg.c **** 	CY_SET_XTND_REG8((void CYFAR *)(CYREG_CLKDIST_BCFG2), 0x48u);
 390              		.loc 1 255 0
 391 014c 3970     		strb	r1, [r7]
 256:Generated_Source\PSoC5/cyfitter_cfg.c **** 	CY_SET_XTND_REG8((void CYFAR *)(CYREG_CLKDIST_MSTR0), 0x00u);
 392              		.loc 1 256 0
 393 014e 2E70     		strb	r6, [r5]
 257:Generated_Source\PSoC5/cyfitter_cfg.c **** 	CY_SET_XTND_REG8((void CYFAR *)(CYREG_CLKDIST_LD), 0x02u);
 394              		.loc 1 257 0
 395 0150 1970     		strb	r1, [r3]
 258:Generated_Source\PSoC5/cyfitter_cfg.c **** 
 396              		.loc 1 258 0
 397 0152 0470     		strb	r4, [r0]
 260:Generated_Source\PSoC5/cyfitter_cfg.c **** }
 398              		.loc 1 260 0
 399 0154 1378     		ldrb	r3, [r2]	@ zero_extendqisi2
 400              	.LBE50:
 401              	.LBE75:
 401:Generated_Source\PSoC5/cyfitter_cfg.c **** 	/* Setup clocks based on selections from Clock DWR */
 402:Generated_Source\PSoC5/cyfitter_cfg.c **** 	ClockSetup();
 403:Generated_Source\PSoC5/cyfitter_cfg.c **** 	/* Set Flash Cycles based on newly configured 24.00MHz Bus Clock. */
 404:Generated_Source\PSoC5/cyfitter_cfg.c **** 	CY_SET_XTND_REG8((void CYFAR *)(CYREG_CACHE_CC_CTL), (((CYDEV_INSTRUCT_CACHE_ENABLED) != 0) ? 0x81
 405:Generated_Source\PSoC5/cyfitter_cfg.c **** 	CY_SET_XTND_REG8((void CYFAR *)(CYREG_PANTHER_WAITPIPE), 0x01u);
 402              		.loc 1 405 0
 403 0156 00F5F820 		add	r0, r0, #507904
 404 015a 0330     		adds	r0, r0, #3
 405              	.LBB76:
 406              	.LBB51:
 260:Generated_Source\PSoC5/cyfitter_cfg.c **** }
 407              		.loc 1 260 0
 408 015c 43F00103 		orr	r3, r3, #1
 409              	.LBE51:
 410              	.LBE76:
 404:Generated_Source\PSoC5/cyfitter_cfg.c **** 	CY_SET_XTND_REG8((void CYFAR *)(CYREG_PANTHER_WAITPIPE), 0x01u);
 411              		.loc 1 404 0
 412 0160 8126     		movs	r6, #129
 413              		.loc 1 405 0
 414 0162 0124     		movs	r4, #1
 415              	.LBB77:
 416              	.LBB78:
 285:Generated_Source\PSoC5/cyfitter_cfg.c **** 	CY_SET_XTND_REG8((void CYFAR *)(CYREG_BG_DFT0), (bg_xover_inl_trim & 0x07u));
 417              		.loc 1 285 0
 418 0164 2349     		ldr	r1, .L27+88
 419              	.LBE78:
 420              	.LBE77:
 421              	.LBB83:
 422              	.LBB52:
 260:Generated_Source\PSoC5/cyfitter_cfg.c **** }
 423              		.loc 1 260 0
 424 0166 1370     		strb	r3, [r2]
 425              	.LBE52:
 426              	.LBE83:
 404:Generated_Source\PSoC5/cyfitter_cfg.c **** 	CY_SET_XTND_REG8((void CYFAR *)(CYREG_PANTHER_WAITPIPE), 0x01u);
 427              		.loc 1 404 0
 428 0168 85F8F867 		strb	r6, [r5, #2040]
 429              		.loc 1 405 0
ARM GAS  C:\Users\sinow\AppData\Local\Temp\cccB33Sd.s 			page 17


 430 016c 0470     		strb	r4, [r0]
 431              	.LBB84:
 432              	.LBB79:
 285:Generated_Source\PSoC5/cyfitter_cfg.c **** 	CY_SET_XTND_REG8((void CYFAR *)(CYREG_BG_DFT0), (bg_xover_inl_trim & 0x07u));
 433              		.loc 1 285 0
 434 016e 0B78     		ldrb	r3, [r1]	@ zero_extendqisi2
 286:Generated_Source\PSoC5/cyfitter_cfg.c **** 	CY_SET_XTND_REG8((void CYFAR *)(CYREG_BG_DFT1), ((bg_xover_inl_trim >> 4) & 0x0Fu));
 435              		.loc 1 286 0
 436 0170 A0F5F420 		sub	r0, r0, #499712
 285:Generated_Source\PSoC5/cyfitter_cfg.c **** 	CY_SET_XTND_REG8((void CYFAR *)(CYREG_BG_DFT0), (bg_xover_inl_trim & 0x07u));
 437              		.loc 1 285 0
 438 0174 DBB2     		uxtb	r3, r3
 439              	.LVL22:
 287:Generated_Source\PSoC5/cyfitter_cfg.c **** 	CY_SET_XTND_REG8((void CYFAR *)CYREG_PUMP_CR0, 0x44u);
 440              		.loc 1 287 0
 441 0176 2049     		ldr	r1, .L27+92
 286:Generated_Source\PSoC5/cyfitter_cfg.c **** 	CY_SET_XTND_REG8((void CYFAR *)(CYREG_BG_DFT1), ((bg_xover_inl_trim >> 4) & 0x0Fu));
 442              		.loc 1 286 0
 443 0178 A0F29670 		subw	r0, r0, #1942
 288:Generated_Source\PSoC5/cyfitter_cfg.c **** }
 444              		.loc 1 288 0
 445 017c 05F5C355 		add	r5, r5, #6240
 286:Generated_Source\PSoC5/cyfitter_cfg.c **** 	CY_SET_XTND_REG8((void CYFAR *)(CYREG_BG_DFT1), ((bg_xover_inl_trim >> 4) & 0x0Fu));
 446              		.loc 1 286 0
 447 0180 03F00707 		and	r7, r3, #7
 448              	.LBE79:
 449              	.LBE84:
 450              	.LBB85:
 451              	.LBB86:
  86:Generated_Source\PSoC5/cyfitter_cfg.c **** }
 452              		.loc 1 86 0
 453 0184 1D4C     		ldr	r4, .L27+96
 454              	.LBE86:
 455              	.LBE85:
 456              	.LBB90:
 457              	.LBB80:
 287:Generated_Source\PSoC5/cyfitter_cfg.c **** 	CY_SET_XTND_REG8((void CYFAR *)CYREG_PUMP_CR0, 0x44u);
 458              		.loc 1 287 0
 459 0186 1B09     		lsrs	r3, r3, #4
 460              	.LVL23:
 286:Generated_Source\PSoC5/cyfitter_cfg.c **** 	CY_SET_XTND_REG8((void CYFAR *)(CYREG_BG_DFT1), ((bg_xover_inl_trim >> 4) & 0x0Fu));
 461              		.loc 1 286 0
 462 0188 0770     		strb	r7, [r0]
 463              	.LBE80:
 464              	.LBE90:
 465              	.LBB91:
 466              	.LBB87:
  86:Generated_Source\PSoC5/cyfitter_cfg.c **** }
 467              		.loc 1 86 0
 468 018a 023A     		subs	r2, r2, #2
 469              	.LBE87:
 470              	.LBE91:
 471              	.LBB92:
 472              	.LBB81:
 287:Generated_Source\PSoC5/cyfitter_cfg.c **** 	CY_SET_XTND_REG8((void CYFAR *)CYREG_PUMP_CR0, 0x44u);
 473              		.loc 1 287 0
 474 018c 0B70     		strb	r3, [r1]
ARM GAS  C:\Users\sinow\AppData\Local\Temp\cccB33Sd.s 			page 18


 288:Generated_Source\PSoC5/cyfitter_cfg.c **** }
 475              		.loc 1 288 0
 476 018e 0E35     		adds	r5, r5, #14
 477 0190 4426     		movs	r6, #68
 478              	.LBE81:
 479              	.LBE92:
 480              	.LBB93:
 481              	.LBB88:
  86:Generated_Source\PSoC5/cyfitter_cfg.c **** }
 482              		.loc 1 86 0
 483 0192 0FCA     		ldmia	r2, {r0, r1, r2, r3}
 484              	.LBE88:
 485              	.LBE93:
 486              	.LBB94:
 487              	.LBB82:
 288:Generated_Source\PSoC5/cyfitter_cfg.c **** }
 488              		.loc 1 288 0
 489 0194 2E70     		strb	r6, [r5]
 490              	.LVL24:
 491              	.LBE82:
 492              	.LBE94:
 493              	.LBB95:
 494              	.LBB89:
  86:Generated_Source\PSoC5/cyfitter_cfg.c **** }
 495              		.loc 1 86 0
 496 0196 07C4     		stmia	r4!, {r0, r1, r2}
 497 0198 2380     		strh	r3, [r4]	@ movhi
 498              	.LVL25:
 499 019a F8BD     		pop	{r3, r4, r5, r6, r7, pc}
 500              	.L28:
 501              		.align	2
 502              	.L27:
 503 019c 00000000 		.word	.LANCHOR0
 504 01a0 E8460040 		.word	1073759976
 505 01a4 FCFFFF47 		.word	1207959548
 506 01a8 34000048 		.word	1207959604
 507 01ac 03500140 		.word	1073827843
 508 01b0 13500140 		.word	1073827859
 509 01b4 A0430040 		.word	1073759136
 510 01b8 74010048 		.word	1207959924
 511 01bc C0510040 		.word	1073762752
 512 01c0 22430040 		.word	1073759010
 513 01c4 80010048 		.word	1207959936
 514 01c8 82400040 		.word	1073758338
 515 01cc 00430040 		.word	1073758976
 516 01d0 00420040 		.word	1073758720
 517 01d4 08010049 		.word	1224737032
 518 01d8 12510040 		.word	1073762578
 519 01dc 22420040 		.word	1073758754
 520 01e0 04400040 		.word	1073758212
 521 01e4 08400040 		.word	1073758216
 522 01e8 06400040 		.word	1073758214
 523 01ec 01400040 		.word	1073758209
 524 01f0 A2430040 		.word	1073759138
 525 01f4 CF010049 		.word	1224737231
 526 01f8 6F580040 		.word	1073764463
 527 01fc B0430040 		.word	1073759152
ARM GAS  C:\Users\sinow\AppData\Local\Temp\cccB33Sd.s 			page 19


 528 0200 00480040 		.word	1073760256
 529 0204 80400040 		.word	1073758336
 530              	.LBE89:
 531              	.LBE95:
 532              		.cfi_endproc
 533              	.LFE8:
 534              		.size	cyfitter_cfg, .-cyfitter_cfg
 535              		.section	.rodata
 536              		.align	2
 537              		.set	.LANCHOR0,. + 0
 538              		.type	cfg_memset_list.5003, %object
 539              		.size	cfg_memset_list.5003, 48
 540              	cfg_memset_list.5003:
 541 0000 00510040 		.word	1073762560
 542 0004 1000     		.short	16
 543 0006 20510040 		.4byte	1073762592
 544 000a 5000     		.short	80
 545 000c F0510040 		.word	1073762800
 546 0010 1000     		.short	16
 547 0012 00000140 		.4byte	1073807360
 548 0016 0010     		.short	4096
 549 0018 00140140 		.word	1073812480
 550 001c 0008     		.short	2048
 551 001e 00400140 		.4byte	1073823744
 552 0022 000A     		.short	2560
 553 0024 004C0140 		.word	1073826816
 554 0028 0002     		.short	512
 555 002a 00500140 		.4byte	1073827840
 556 002e 2000     		.short	32
 557              		.text
 558              	.Letext0:
 559              		.file 2 "c:\\program files (x86)\\cypress\\psoc creator\\4.2\\psoc creator\\import\\gnu\\arm\\5.4.
 560              		.file 3 "Generated_Source\\PSoC5\\cytypes.h"
 561              		.file 4 "Generated_Source\\PSoC5\\CyLib.h"