ARM GAS  C:\Users\sinow\AppData\Local\Temp\ccraqEQ8.s 			page 1


   1              		.syntax unified
   2              		.cpu cortex-m3
   3              		.fpu softvfp
   4              		.eabi_attribute 20, 1
   5              		.eabi_attribute 21, 1
   6              		.eabi_attribute 23, 3
   7              		.eabi_attribute 24, 1
   8              		.eabi_attribute 25, 1
   9              		.eabi_attribute 26, 1
  10              		.eabi_attribute 30, 2
  11              		.eabi_attribute 34, 1
  12              		.eabi_attribute 18, 4
  13              		.thumb
  14              		.syntax unified
  15              		.file	"CyFlash.c"
  16              		.text
  17              	.Ltext0:
  18              		.cfi_sections	.debug_frame
  19              		.section	.text.CyFlash_Start,"ax",%progbits
  20              		.align	2
  21              		.global	CyFlash_Start
  22              		.thumb
  23              		.thumb_func
  24              		.type	CyFlash_Start, %function
  25              	CyFlash_Start:
  26              	.LFB0:
  27              		.file 1 "Generated_Source\\PSoC5\\CyFlash.c"
   1:Generated_Source\PSoC5/CyFlash.c **** /***************************************************************************//**
   2:Generated_Source\PSoC5/CyFlash.c **** * \file CyFlash.c
   3:Generated_Source\PSoC5/CyFlash.c **** * \version 5.60
   4:Generated_Source\PSoC5/CyFlash.c **** *
   5:Generated_Source\PSoC5/CyFlash.c **** * \brief Provides an API for the FLASH/EEPROM.
   6:Generated_Source\PSoC5/CyFlash.c **** *
   7:Generated_Source\PSoC5/CyFlash.c **** * \note This code is endian agnostic.
   8:Generated_Source\PSoC5/CyFlash.c **** *
   9:Generated_Source\PSoC5/CyFlash.c **** * \note Documentation of the API's in this file is located in the System
  10:Generated_Source\PSoC5/CyFlash.c **** * Reference Guide provided with PSoC Creator.
  11:Generated_Source\PSoC5/CyFlash.c **** *
  12:Generated_Source\PSoC5/CyFlash.c **** ********************************************************************************
  13:Generated_Source\PSoC5/CyFlash.c **** * \copyright
  14:Generated_Source\PSoC5/CyFlash.c **** * Copyright 2008-2017, Cypress Semiconductor Corporation. All rights reserved.
  15:Generated_Source\PSoC5/CyFlash.c **** * You may use this file only in accordance with the license, terms, conditions,
  16:Generated_Source\PSoC5/CyFlash.c **** * disclaimers, and limitations in the end user license agreement accompanying
  17:Generated_Source\PSoC5/CyFlash.c **** * the software package with which this file was provided.
  18:Generated_Source\PSoC5/CyFlash.c **** *******************************************************************************/
  19:Generated_Source\PSoC5/CyFlash.c **** 
  20:Generated_Source\PSoC5/CyFlash.c **** #include "CyFlash.h"
  21:Generated_Source\PSoC5/CyFlash.c **** 
  22:Generated_Source\PSoC5/CyFlash.c **** /*  The number of EEPROM arrays */
  23:Generated_Source\PSoC5/CyFlash.c **** #define CY_FLASH_EEPROM_NUMBER_ARRAYS                 (1u)
  24:Generated_Source\PSoC5/CyFlash.c **** 
  25:Generated_Source\PSoC5/CyFlash.c **** 
  26:Generated_Source\PSoC5/CyFlash.c **** /*******************************************************************************
  27:Generated_Source\PSoC5/CyFlash.c **** * Holds the die temperature, updated by CySetTemp(). Used for flash writing.
  28:Generated_Source\PSoC5/CyFlash.c **** * The first byte is the sign of the temperature (0 = negative, 1 = positive).
  29:Generated_Source\PSoC5/CyFlash.c **** * The second byte is the magnitude.
  30:Generated_Source\PSoC5/CyFlash.c **** *******************************************************************************/
ARM GAS  C:\Users\sinow\AppData\Local\Temp\ccraqEQ8.s 			page 2


  31:Generated_Source\PSoC5/CyFlash.c **** uint8 dieTemperature[CY_FLASH_DIE_TEMP_DATA_SIZE];
  32:Generated_Source\PSoC5/CyFlash.c **** 
  33:Generated_Source\PSoC5/CyFlash.c **** #if(CYDEV_ECC_ENABLE == 0)
  34:Generated_Source\PSoC5/CyFlash.c ****     static uint8 * rowBuffer = 0;
  35:Generated_Source\PSoC5/CyFlash.c **** #endif  /* (CYDEV_ECC_ENABLE == 0) */
  36:Generated_Source\PSoC5/CyFlash.c **** 
  37:Generated_Source\PSoC5/CyFlash.c **** 
  38:Generated_Source\PSoC5/CyFlash.c **** static cystatus CySetTempInt(void);
  39:Generated_Source\PSoC5/CyFlash.c **** static cystatus CyFlashGetSpcAlgorithm(void);
  40:Generated_Source\PSoC5/CyFlash.c **** 
  41:Generated_Source\PSoC5/CyFlash.c **** 
  42:Generated_Source\PSoC5/CyFlash.c **** /*******************************************************************************
  43:Generated_Source\PSoC5/CyFlash.c **** * Function Name: CyFlash_Start
  44:Generated_Source\PSoC5/CyFlash.c **** ****************************************************************************//**
  45:Generated_Source\PSoC5/CyFlash.c **** *
  46:Generated_Source\PSoC5/CyFlash.c **** *  Enable the Flash.
  47:Generated_Source\PSoC5/CyFlash.c **** *
  48:Generated_Source\PSoC5/CyFlash.c **** *******************************************************************************/
  49:Generated_Source\PSoC5/CyFlash.c **** void CyFlash_Start(void) 
  50:Generated_Source\PSoC5/CyFlash.c **** {
  28              		.loc 1 50 0
  29              		.cfi_startproc
  30              		@ args = 0, pretend = 0, frame = 0
  31              		@ frame_needed = 0, uses_anonymous_args = 0
  32 0000 38B5     		push	{r3, r4, r5, lr}
  33              		.cfi_def_cfa_offset 16
  34              		.cfi_offset 3, -16
  35              		.cfi_offset 4, -12
  36              		.cfi_offset 5, -8
  37              		.cfi_offset 14, -4
  51:Generated_Source\PSoC5/CyFlash.c ****     uint8 interruptState;
  52:Generated_Source\PSoC5/CyFlash.c **** 
  53:Generated_Source\PSoC5/CyFlash.c ****     interruptState = CyEnterCriticalSection();
  38              		.loc 1 53 0
  39 0002 FFF7FEFF 		bl	CyEnterCriticalSection
  40              	.LVL0:
  54:Generated_Source\PSoC5/CyFlash.c **** 
  55:Generated_Source\PSoC5/CyFlash.c **** 
  56:Generated_Source\PSoC5/CyFlash.c ****     /***************************************************************************
  57:Generated_Source\PSoC5/CyFlash.c ****     * Enable SPC clock. This also internally enables the 36MHz IMO, since this
  58:Generated_Source\PSoC5/CyFlash.c ****     * is required for the SPC to function.
  59:Generated_Source\PSoC5/CyFlash.c ****     ***************************************************************************/
  60:Generated_Source\PSoC5/CyFlash.c ****     CY_FLASH_PM_ACT_CFG0_REG    |= CY_FLASH_PM_ACT_CFG0_EN_CLK_SPC;
  41              		.loc 1 60 0
  42 0006 0F4A     		ldr	r2, .L7
  61:Generated_Source\PSoC5/CyFlash.c ****     CY_FLASH_PM_ALTACT_CFG0_REG |= CY_FLASH_PM_ALTACT_CFG0_EN_CLK_SPC;
  43              		.loc 1 61 0
  44 0008 0F49     		ldr	r1, .L7+4
  60:Generated_Source\PSoC5/CyFlash.c ****     CY_FLASH_PM_ALTACT_CFG0_REG |= CY_FLASH_PM_ALTACT_CFG0_EN_CLK_SPC;
  45              		.loc 1 60 0
  46 000a 1378     		ldrb	r3, [r2]	@ zero_extendqisi2
  62:Generated_Source\PSoC5/CyFlash.c **** 
  63:Generated_Source\PSoC5/CyFlash.c **** 
  64:Generated_Source\PSoC5/CyFlash.c ****     /***************************************************************************
  65:Generated_Source\PSoC5/CyFlash.c ****     * The wake count defines the number of Bus Clock cycles it takes for the
  66:Generated_Source\PSoC5/CyFlash.c ****     * flash or eeprom to wake up from a low power mode independent of the chip
  67:Generated_Source\PSoC5/CyFlash.c ****     * power mode. Wake up time for these blocks is 5 us.
ARM GAS  C:\Users\sinow\AppData\Local\Temp\ccraqEQ8.s 			page 3


  68:Generated_Source\PSoC5/CyFlash.c ****     * The granularity of this register is 2 Bus Clock cycles, so a value of 0x1E
  69:Generated_Source\PSoC5/CyFlash.c ****     * (30d) defines the wake up time as 60 cycles of the Bus Clock.
  70:Generated_Source\PSoC5/CyFlash.c ****     * This register needs to be written with a value dependent on the Bus Clock
  71:Generated_Source\PSoC5/CyFlash.c ****     * frequency so that the duration of the cycles is equal to or greater than
  72:Generated_Source\PSoC5/CyFlash.c ****     * the 5 us delay required.
  73:Generated_Source\PSoC5/CyFlash.c ****     ***************************************************************************/
  74:Generated_Source\PSoC5/CyFlash.c ****     CY_FLASH_SPC_FM_EE_WAKE_CNT_REG = CY_FLASH_SPC_FM_EE_WAKE_CNT_80MHZ;
  47              		.loc 1 74 0
  48 000c 0F4C     		ldr	r4, .L7+8
  60:Generated_Source\PSoC5/CyFlash.c ****     CY_FLASH_PM_ALTACT_CFG0_REG |= CY_FLASH_PM_ALTACT_CFG0_EN_CLK_SPC;
  49              		.loc 1 60 0
  50 000e 43F00803 		orr	r3, r3, #8
  51 0012 1370     		strb	r3, [r2]
  61:Generated_Source\PSoC5/CyFlash.c **** 
  52              		.loc 1 61 0
  53 0014 0B78     		ldrb	r3, [r1]	@ zero_extendqisi2
  54              		.loc 1 74 0
  55 0016 C825     		movs	r5, #200
  61:Generated_Source\PSoC5/CyFlash.c **** 
  56              		.loc 1 61 0
  57 0018 43F00803 		orr	r3, r3, #8
  58 001c 0B70     		strb	r3, [r1]
  59              		.loc 1 74 0
  60 001e 2570     		strb	r5, [r4]
  75:Generated_Source\PSoC5/CyFlash.c **** 
  76:Generated_Source\PSoC5/CyFlash.c **** 
  77:Generated_Source\PSoC5/CyFlash.c ****     /***************************************************************************
  78:Generated_Source\PSoC5/CyFlash.c ****     * Enable flash. Active flash macros consume current, but re-enabling a
  79:Generated_Source\PSoC5/CyFlash.c ****     * disabled flash macro takes 5us. If the CPU attempts to fetch out of the
  80:Generated_Source\PSoC5/CyFlash.c ****     * macro during that time, it will be stalled. This bit allows the flash to
  81:Generated_Source\PSoC5/CyFlash.c ****     * be enabled even if the CPU is disabled, which allows a quicker return to
  82:Generated_Source\PSoC5/CyFlash.c ****     * code execution.
  83:Generated_Source\PSoC5/CyFlash.c ****     ***************************************************************************/
  84:Generated_Source\PSoC5/CyFlash.c ****     CY_FLASH_PM_ACT_CFG12_REG    |= CY_FLASH_PM_ACT_CFG12_EN_FM;
  61              		.loc 1 84 0
  62 0020 137B     		ldrb	r3, [r2, #12]	@ zero_extendqisi2
  63 0022 43F00F03 		orr	r3, r3, #15
  64 0026 1373     		strb	r3, [r2, #12]
  85:Generated_Source\PSoC5/CyFlash.c ****     CY_FLASH_PM_ALTACT_CFG12_REG |= CY_FLASH_PM_ALTACT_CFG12_EN_FM;
  65              		.loc 1 85 0
  66 0028 0B7B     		ldrb	r3, [r1, #12]	@ zero_extendqisi2
  86:Generated_Source\PSoC5/CyFlash.c **** 
  87:Generated_Source\PSoC5/CyFlash.c ****     while(0u == (CY_FLASH_SPC_FM_EE_CR_REG & CY_FLASH_EE_EE_AWAKE))
  67              		.loc 1 87 0
  68 002a 02F55872 		add	r2, r2, #864
  85:Generated_Source\PSoC5/CyFlash.c ****     CY_FLASH_PM_ALTACT_CFG12_REG |= CY_FLASH_PM_ALTACT_CFG12_EN_FM;
  69              		.loc 1 85 0
  70 002e 43F00F03 		orr	r3, r3, #15
  71 0032 0B73     		strb	r3, [r1, #12]
  72              	.L2:
  73              		.loc 1 87 0 discriminator 1
  74 0034 1378     		ldrb	r3, [r2]	@ zero_extendqisi2
  75 0036 9B06     		lsls	r3, r3, #26
  76 0038 FCD5     		bpl	.L2
  88:Generated_Source\PSoC5/CyFlash.c ****     {
  89:Generated_Source\PSoC5/CyFlash.c ****         /* Non-zero status denotes that the EEPROM/Flash is awake & powered. */
  90:Generated_Source\PSoC5/CyFlash.c ****     }
ARM GAS  C:\Users\sinow\AppData\Local\Temp\ccraqEQ8.s 			page 4


  91:Generated_Source\PSoC5/CyFlash.c **** 
  92:Generated_Source\PSoC5/CyFlash.c ****     CyExitCriticalSection(interruptState);
  93:Generated_Source\PSoC5/CyFlash.c **** }
  77              		.loc 1 93 0
  78 003a BDE83840 		pop	{r3, r4, r5, lr}
  79              		.cfi_restore 14
  80              		.cfi_restore 5
  81              		.cfi_restore 4
  82              		.cfi_restore 3
  83              		.cfi_def_cfa_offset 0
  92:Generated_Source\PSoC5/CyFlash.c **** }
  84              		.loc 1 92 0
  85 003e FFF7FEBF 		b	CyExitCriticalSection
  86              	.LVL1:
  87              	.L8:
  88 0042 00BF     		.align	2
  89              	.L7:
  90 0044 A0430040 		.word	1073759136
  91 0048 B0430040 		.word	1073759152
  92 004c 01470040 		.word	1073760001
  93              		.cfi_endproc
  94              	.LFE0:
  95              		.size	CyFlash_Start, .-CyFlash_Start
  96              		.section	.text.CyFlash_Stop,"ax",%progbits
  97              		.align	2
  98              		.global	CyFlash_Stop
  99              		.thumb
 100              		.thumb_func
 101              		.type	CyFlash_Stop, %function
 102              	CyFlash_Stop:
 103              	.LFB1:
  94:Generated_Source\PSoC5/CyFlash.c **** 
  95:Generated_Source\PSoC5/CyFlash.c **** 
  96:Generated_Source\PSoC5/CyFlash.c **** /*******************************************************************************
  97:Generated_Source\PSoC5/CyFlash.c **** * Function Name: CyFlash_Stop
  98:Generated_Source\PSoC5/CyFlash.c **** ****************************************************************************//**
  99:Generated_Source\PSoC5/CyFlash.c **** *
 100:Generated_Source\PSoC5/CyFlash.c **** *  Disable the Flash.
 101:Generated_Source\PSoC5/CyFlash.c **** *
 102:Generated_Source\PSoC5/CyFlash.c **** * \sideeffect
 103:Generated_Source\PSoC5/CyFlash.c **** *  This setting is ignored as long as the CPU is currently running.  This will
 104:Generated_Source\PSoC5/CyFlash.c **** *  only take effect when the CPU is later disabled.
 105:Generated_Source\PSoC5/CyFlash.c **** *
 106:Generated_Source\PSoC5/CyFlash.c **** *******************************************************************************/
 107:Generated_Source\PSoC5/CyFlash.c **** void CyFlash_Stop(void) 
 108:Generated_Source\PSoC5/CyFlash.c **** {
 104              		.loc 1 108 0
 105              		.cfi_startproc
 106              		@ args = 0, pretend = 0, frame = 0
 107              		@ frame_needed = 0, uses_anonymous_args = 0
 108 0000 08B5     		push	{r3, lr}
 109              		.cfi_def_cfa_offset 8
 110              		.cfi_offset 3, -8
 111              		.cfi_offset 14, -4
 109:Generated_Source\PSoC5/CyFlash.c ****     uint8 interruptState;
 110:Generated_Source\PSoC5/CyFlash.c **** 
 111:Generated_Source\PSoC5/CyFlash.c ****     interruptState = CyEnterCriticalSection();
ARM GAS  C:\Users\sinow\AppData\Local\Temp\ccraqEQ8.s 			page 5


 112              		.loc 1 111 0
 113 0002 FFF7FEFF 		bl	CyEnterCriticalSection
 114              	.LVL2:
 112:Generated_Source\PSoC5/CyFlash.c **** 
 113:Generated_Source\PSoC5/CyFlash.c ****     CY_FLASH_PM_ACT_CFG12_REG    &= ((uint8)(~CY_FLASH_PM_ACT_CFG12_EN_FM));
 115              		.loc 1 113 0
 116 0006 0749     		ldr	r1, .L11
 114:Generated_Source\PSoC5/CyFlash.c ****     CY_FLASH_PM_ALTACT_CFG12_REG &= ((uint8)(~CY_FLASH_PM_ALTACT_CFG12_EN_FM));
 117              		.loc 1 114 0
 118 0008 074A     		ldr	r2, .L11+4
 113:Generated_Source\PSoC5/CyFlash.c ****     CY_FLASH_PM_ALTACT_CFG12_REG &= ((uint8)(~CY_FLASH_PM_ALTACT_CFG12_EN_FM));
 119              		.loc 1 113 0
 120 000a 0B78     		ldrb	r3, [r1]	@ zero_extendqisi2
 121 000c 03F0F003 		and	r3, r3, #240
 122 0010 0B70     		strb	r3, [r1]
 123              		.loc 1 114 0
 124 0012 1378     		ldrb	r3, [r2]	@ zero_extendqisi2
 125 0014 03F0F003 		and	r3, r3, #240
 126 0018 1370     		strb	r3, [r2]
 115:Generated_Source\PSoC5/CyFlash.c **** 
 116:Generated_Source\PSoC5/CyFlash.c ****     CyExitCriticalSection(interruptState);
 117:Generated_Source\PSoC5/CyFlash.c **** }
 127              		.loc 1 117 0
 128 001a BDE80840 		pop	{r3, lr}
 129              		.cfi_restore 14
 130              		.cfi_restore 3
 131              		.cfi_def_cfa_offset 0
 116:Generated_Source\PSoC5/CyFlash.c **** }
 132              		.loc 1 116 0
 133 001e FFF7FEBF 		b	CyExitCriticalSection
 134              	.LVL3:
 135              	.L12:
 136 0022 00BF     		.align	2
 137              	.L11:
 138 0024 AC430040 		.word	1073759148
 139 0028 BC430040 		.word	1073759164
 140              		.cfi_endproc
 141              	.LFE1:
 142              		.size	CyFlash_Stop, .-CyFlash_Stop
 143              		.section	.text.CySetTemp,"ax",%progbits
 144              		.align	2
 145              		.global	CySetTemp
 146              		.thumb
 147              		.thumb_func
 148              		.type	CySetTemp, %function
 149              	CySetTemp:
 150              	.LFB4:
 118:Generated_Source\PSoC5/CyFlash.c **** 
 119:Generated_Source\PSoC5/CyFlash.c **** 
 120:Generated_Source\PSoC5/CyFlash.c **** /*******************************************************************************
 121:Generated_Source\PSoC5/CyFlash.c **** * Function Name: CySetTempInt
 122:Generated_Source\PSoC5/CyFlash.c **** ****************************************************************************//**
 123:Generated_Source\PSoC5/CyFlash.c **** *
 124:Generated_Source\PSoC5/CyFlash.c **** *  Sends a command to the SPC to read the die temperature. Sets a global value
 125:Generated_Source\PSoC5/CyFlash.c **** *  used by the Write function. This function must be called once before
 126:Generated_Source\PSoC5/CyFlash.c **** *  executing a series of Flash writing functions.
 127:Generated_Source\PSoC5/CyFlash.c **** *
ARM GAS  C:\Users\sinow\AppData\Local\Temp\ccraqEQ8.s 			page 6


 128:Generated_Source\PSoC5/CyFlash.c **** * \return
 129:Generated_Source\PSoC5/CyFlash.c **** *  status:
 130:Generated_Source\PSoC5/CyFlash.c **** *   CYRET_SUCCESS - if successful
 131:Generated_Source\PSoC5/CyFlash.c **** *   CYRET_LOCKED  - if Flash writing already in use
 132:Generated_Source\PSoC5/CyFlash.c **** *   CYRET_UNKNOWN - if there was an SPC error
 133:Generated_Source\PSoC5/CyFlash.c **** *
 134:Generated_Source\PSoC5/CyFlash.c **** *******************************************************************************/
 135:Generated_Source\PSoC5/CyFlash.c **** static cystatus CySetTempInt(void) 
 136:Generated_Source\PSoC5/CyFlash.c **** {
 137:Generated_Source\PSoC5/CyFlash.c ****     cystatus status;
 138:Generated_Source\PSoC5/CyFlash.c **** 
 139:Generated_Source\PSoC5/CyFlash.c ****     /* Make sure SPC is powered */
 140:Generated_Source\PSoC5/CyFlash.c ****     CySpcStart();
 141:Generated_Source\PSoC5/CyFlash.c **** 
 142:Generated_Source\PSoC5/CyFlash.c ****     /* Plan for failure. */
 143:Generated_Source\PSoC5/CyFlash.c ****     status = CYRET_UNKNOWN;
 144:Generated_Source\PSoC5/CyFlash.c **** 
 145:Generated_Source\PSoC5/CyFlash.c ****     if(CySpcLock() == CYRET_SUCCESS)
 146:Generated_Source\PSoC5/CyFlash.c ****     {
 147:Generated_Source\PSoC5/CyFlash.c ****         /* Write the command. */
 148:Generated_Source\PSoC5/CyFlash.c ****         if(CYRET_STARTED == CySpcGetTemp(CY_TEMP_NUMBER_OF_SAMPLES))
 149:Generated_Source\PSoC5/CyFlash.c ****         {
 150:Generated_Source\PSoC5/CyFlash.c ****             do
 151:Generated_Source\PSoC5/CyFlash.c ****             {
 152:Generated_Source\PSoC5/CyFlash.c ****                 if(CySpcReadData(dieTemperature, CY_FLASH_DIE_TEMP_DATA_SIZE) == CY_FLASH_DIE_TEMP_
 153:Generated_Source\PSoC5/CyFlash.c ****                 {
 154:Generated_Source\PSoC5/CyFlash.c ****                     status = CYRET_SUCCESS;
 155:Generated_Source\PSoC5/CyFlash.c **** 
 156:Generated_Source\PSoC5/CyFlash.c ****                     while(CY_SPC_BUSY)
 157:Generated_Source\PSoC5/CyFlash.c ****                     {
 158:Generated_Source\PSoC5/CyFlash.c ****                         /* Spin until idle. */
 159:Generated_Source\PSoC5/CyFlash.c ****                         CyDelayUs(1u);
 160:Generated_Source\PSoC5/CyFlash.c ****                     }
 161:Generated_Source\PSoC5/CyFlash.c ****                     break;
 162:Generated_Source\PSoC5/CyFlash.c ****                 }
 163:Generated_Source\PSoC5/CyFlash.c **** 
 164:Generated_Source\PSoC5/CyFlash.c ****             } while(CY_SPC_BUSY);
 165:Generated_Source\PSoC5/CyFlash.c ****         }
 166:Generated_Source\PSoC5/CyFlash.c **** 
 167:Generated_Source\PSoC5/CyFlash.c ****         CySpcUnlock();
 168:Generated_Source\PSoC5/CyFlash.c ****     }
 169:Generated_Source\PSoC5/CyFlash.c ****     else
 170:Generated_Source\PSoC5/CyFlash.c ****     {
 171:Generated_Source\PSoC5/CyFlash.c ****         status = CYRET_LOCKED;
 172:Generated_Source\PSoC5/CyFlash.c ****     }
 173:Generated_Source\PSoC5/CyFlash.c **** 
 174:Generated_Source\PSoC5/CyFlash.c ****     return (status);
 175:Generated_Source\PSoC5/CyFlash.c **** }
 176:Generated_Source\PSoC5/CyFlash.c **** 
 177:Generated_Source\PSoC5/CyFlash.c **** 
 178:Generated_Source\PSoC5/CyFlash.c **** /*******************************************************************************
 179:Generated_Source\PSoC5/CyFlash.c **** * Function Name: CyFlashGetSpcAlgorithm
 180:Generated_Source\PSoC5/CyFlash.c **** ****************************************************************************//**
 181:Generated_Source\PSoC5/CyFlash.c **** *
 182:Generated_Source\PSoC5/CyFlash.c **** *  Sends a command to the SPC to download code into RAM.
 183:Generated_Source\PSoC5/CyFlash.c **** *
 184:Generated_Source\PSoC5/CyFlash.c **** * \return
ARM GAS  C:\Users\sinow\AppData\Local\Temp\ccraqEQ8.s 			page 7


 185:Generated_Source\PSoC5/CyFlash.c **** *  status:
 186:Generated_Source\PSoC5/CyFlash.c **** *   CYRET_SUCCESS - if successful
 187:Generated_Source\PSoC5/CyFlash.c **** *   CYRET_LOCKED  - if Flash writing already in use
 188:Generated_Source\PSoC5/CyFlash.c **** *   CYRET_UNKNOWN - if there was an SPC error
 189:Generated_Source\PSoC5/CyFlash.c **** *
 190:Generated_Source\PSoC5/CyFlash.c **** *******************************************************************************/
 191:Generated_Source\PSoC5/CyFlash.c **** static cystatus CyFlashGetSpcAlgorithm(void) 
 192:Generated_Source\PSoC5/CyFlash.c **** {
 193:Generated_Source\PSoC5/CyFlash.c ****     cystatus status;
 194:Generated_Source\PSoC5/CyFlash.c **** 
 195:Generated_Source\PSoC5/CyFlash.c ****     /* Make sure SPC is powered */
 196:Generated_Source\PSoC5/CyFlash.c ****     CySpcStart();
 197:Generated_Source\PSoC5/CyFlash.c **** 
 198:Generated_Source\PSoC5/CyFlash.c ****     if(CySpcLock() == CYRET_SUCCESS)
 199:Generated_Source\PSoC5/CyFlash.c ****     {
 200:Generated_Source\PSoC5/CyFlash.c ****         status = CySpcGetAlgorithm();
 201:Generated_Source\PSoC5/CyFlash.c **** 
 202:Generated_Source\PSoC5/CyFlash.c ****         if(CYRET_STARTED == status)
 203:Generated_Source\PSoC5/CyFlash.c ****         {
 204:Generated_Source\PSoC5/CyFlash.c ****             while(CY_SPC_BUSY)
 205:Generated_Source\PSoC5/CyFlash.c ****             {
 206:Generated_Source\PSoC5/CyFlash.c ****                 /* Spin until idle. */
 207:Generated_Source\PSoC5/CyFlash.c ****                 CyDelayUs(1u);
 208:Generated_Source\PSoC5/CyFlash.c ****             }
 209:Generated_Source\PSoC5/CyFlash.c **** 
 210:Generated_Source\PSoC5/CyFlash.c ****             if(CY_SPC_STATUS_SUCCESS == CY_SPC_READ_STATUS)
 211:Generated_Source\PSoC5/CyFlash.c ****             {
 212:Generated_Source\PSoC5/CyFlash.c ****                 status = CYRET_SUCCESS;
 213:Generated_Source\PSoC5/CyFlash.c ****             }
 214:Generated_Source\PSoC5/CyFlash.c ****         }
 215:Generated_Source\PSoC5/CyFlash.c ****         CySpcUnlock();
 216:Generated_Source\PSoC5/CyFlash.c ****     }
 217:Generated_Source\PSoC5/CyFlash.c ****     else
 218:Generated_Source\PSoC5/CyFlash.c ****     {
 219:Generated_Source\PSoC5/CyFlash.c ****         status = CYRET_LOCKED;
 220:Generated_Source\PSoC5/CyFlash.c ****     }
 221:Generated_Source\PSoC5/CyFlash.c **** 
 222:Generated_Source\PSoC5/CyFlash.c ****     return (status);
 223:Generated_Source\PSoC5/CyFlash.c **** }
 224:Generated_Source\PSoC5/CyFlash.c **** 
 225:Generated_Source\PSoC5/CyFlash.c **** 
 226:Generated_Source\PSoC5/CyFlash.c **** /*******************************************************************************
 227:Generated_Source\PSoC5/CyFlash.c **** * Function Name: CySetTemp
 228:Generated_Source\PSoC5/CyFlash.c **** ****************************************************************************//**
 229:Generated_Source\PSoC5/CyFlash.c **** *
 230:Generated_Source\PSoC5/CyFlash.c **** *  This is a wraparound for CySetTempInt(). It is used to return the second
 231:Generated_Source\PSoC5/CyFlash.c **** *  successful read of the temperature value.
 232:Generated_Source\PSoC5/CyFlash.c **** *
 233:Generated_Source\PSoC5/CyFlash.c **** * \return
 234:Generated_Source\PSoC5/CyFlash.c **** *  status:
 235:Generated_Source\PSoC5/CyFlash.c **** *   CYRET_SUCCESS if successful.
 236:Generated_Source\PSoC5/CyFlash.c **** *   CYRET_LOCKED  if Flash writing already in use
 237:Generated_Source\PSoC5/CyFlash.c **** *   CYRET_UNKNOWN if there was an SPC error.
 238:Generated_Source\PSoC5/CyFlash.c **** *
 239:Generated_Source\PSoC5/CyFlash.c **** *  uint8 dieTemperature[2]:
 240:Generated_Source\PSoC5/CyFlash.c **** *   Holds the die temperature for the flash writing algorithm. The first byte is
 241:Generated_Source\PSoC5/CyFlash.c **** *   the sign of the temperature (0 = negative, 1 = positive). The second byte is
ARM GAS  C:\Users\sinow\AppData\Local\Temp\ccraqEQ8.s 			page 8


 242:Generated_Source\PSoC5/CyFlash.c **** *   the magnitude.
 243:Generated_Source\PSoC5/CyFlash.c **** *
 244:Generated_Source\PSoC5/CyFlash.c **** *******************************************************************************/
 245:Generated_Source\PSoC5/CyFlash.c **** cystatus CySetTemp(void) 
 246:Generated_Source\PSoC5/CyFlash.c **** {
 151              		.loc 1 246 0
 152              		.cfi_startproc
 153              		@ args = 0, pretend = 0, frame = 0
 154              		@ frame_needed = 0, uses_anonymous_args = 0
 155 0000 38B5     		push	{r3, r4, r5, lr}
 156              		.cfi_def_cfa_offset 16
 157              		.cfi_offset 3, -16
 158              		.cfi_offset 4, -12
 159              		.cfi_offset 5, -8
 160              		.cfi_offset 14, -4
 161              	.LBB6:
 162              	.LBB7:
 196:Generated_Source\PSoC5/CyFlash.c **** 
 163              		.loc 1 196 0
 164 0002 FFF7FEFF 		bl	CySpcStart
 165              	.LVL4:
 198:Generated_Source\PSoC5/CyFlash.c ****     {
 166              		.loc 1 198 0
 167 0006 FFF7FEFF 		bl	CySpcLock
 168              	.LVL5:
 169 000a 10B1     		cbz	r0, .L14
 170              	.L22:
 219:Generated_Source\PSoC5/CyFlash.c ****     }
 171              		.loc 1 219 0
 172 000c 0424     		movs	r4, #4
 173              	.L36:
 174              	.LBE7:
 175              	.LBE6:
 247:Generated_Source\PSoC5/CyFlash.c ****     cystatus status = CyFlashGetSpcAlgorithm();
 248:Generated_Source\PSoC5/CyFlash.c **** 
 249:Generated_Source\PSoC5/CyFlash.c ****     if(status == CYRET_SUCCESS)
 250:Generated_Source\PSoC5/CyFlash.c ****     {
 251:Generated_Source\PSoC5/CyFlash.c ****         status = CySetTempInt();
 252:Generated_Source\PSoC5/CyFlash.c ****     }
 253:Generated_Source\PSoC5/CyFlash.c **** 
 254:Generated_Source\PSoC5/CyFlash.c ****     return (status);
 255:Generated_Source\PSoC5/CyFlash.c **** }
 176              		.loc 1 255 0
 177 000e 2046     		mov	r0, r4
 178 0010 38BD     		pop	{r3, r4, r5, pc}
 179              	.L14:
 180              	.LBB11:
 181              	.LBB8:
 200:Generated_Source\PSoC5/CyFlash.c **** 
 182              		.loc 1 200 0
 183 0012 FFF7FEFF 		bl	CySpcGetAlgorithm
 184              	.LVL6:
 202:Generated_Source\PSoC5/CyFlash.c ****         {
 185              		.loc 1 202 0
 186 0016 0728     		cmp	r0, #7
 200:Generated_Source\PSoC5/CyFlash.c **** 
 187              		.loc 1 200 0
ARM GAS  C:\Users\sinow\AppData\Local\Temp\ccraqEQ8.s 			page 9


 188 0018 0446     		mov	r4, r0
 189              	.LVL7:
 202:Generated_Source\PSoC5/CyFlash.c ****         {
 190              		.loc 1 202 0
 191 001a 2BD0     		beq	.L41
 215:Generated_Source\PSoC5/CyFlash.c ****     }
 192              		.loc 1 215 0
 193 001c FFF7FEFF 		bl	CySpcUnlock
 194              	.LVL8:
 195              	.LBE8:
 196              	.LBE11:
 249:Generated_Source\PSoC5/CyFlash.c ****     {
 197              		.loc 1 249 0
 198 0020 002C     		cmp	r4, #0
 199 0022 F4D1     		bne	.L36
 200              	.L29:
 201              	.LBB12:
 202              	.LBB13:
 140:Generated_Source\PSoC5/CyFlash.c **** 
 203              		.loc 1 140 0
 204 0024 FFF7FEFF 		bl	CySpcStart
 205              	.LVL9:
 145:Generated_Source\PSoC5/CyFlash.c ****     {
 206              		.loc 1 145 0
 207 0028 FFF7FEFF 		bl	CySpcLock
 208              	.LVL10:
 209 002c 0028     		cmp	r0, #0
 210 002e EDD1     		bne	.L22
 148:Generated_Source\PSoC5/CyFlash.c ****         {
 211              		.loc 1 148 0
 212 0030 0120     		movs	r0, #1
 213 0032 FFF7FEFF 		bl	CySpcGetTemp
 214              	.LVL11:
 215 0036 0728     		cmp	r0, #7
 216 0038 05D0     		beq	.L42
 217              	.L28:
 143:Generated_Source\PSoC5/CyFlash.c **** 
 218              		.loc 1 143 0
 219 003a 4FF0FF34 		mov	r4, #-1
 220              	.LVL12:
 221              	.L19:
 222              	.LBE13:
 223              	.LBE12:
 224              	.LBB15:
 225              	.LBB9:
 215:Generated_Source\PSoC5/CyFlash.c ****     }
 226              		.loc 1 215 0
 227 003e FFF7FEFF 		bl	CySpcUnlock
 228              	.LVL13:
 229              	.LBE9:
 230              	.LBE15:
 231              		.loc 1 255 0
 232 0042 2046     		mov	r0, r4
 233 0044 38BD     		pop	{r3, r4, r5, pc}
 234              	.LVL14:
 235              	.L42:
 236              	.LBB16:
ARM GAS  C:\Users\sinow\AppData\Local\Temp\ccraqEQ8.s 			page 10


 237              	.LBB14:
 164:Generated_Source\PSoC5/CyFlash.c ****         }
 238              		.loc 1 164 0
 239 0046 154C     		ldr	r4, .L43
 240 0048 02E0     		b	.L23
 241              	.L25:
 242 004a 2378     		ldrb	r3, [r4]	@ zero_extendqisi2
 243 004c 9B07     		lsls	r3, r3, #30
 244 004e F4D4     		bmi	.L28
 245              	.L23:
 152:Generated_Source\PSoC5/CyFlash.c ****                 {
 246              		.loc 1 152 0
 247 0050 0221     		movs	r1, #2
 248 0052 1348     		ldr	r0, .L43+4
 249 0054 FFF7FEFF 		bl	CySpcReadData
 250              	.LVL15:
 251 0058 0228     		cmp	r0, #2
 252 005a F6D1     		bne	.L25
 156:Generated_Source\PSoC5/CyFlash.c ****                     {
 253              		.loc 1 156 0
 254 005c 0F4C     		ldr	r4, .L43
 255 005e 2378     		ldrb	r3, [r4]	@ zero_extendqisi2
 256 0060 9907     		lsls	r1, r3, #30
 257 0062 05D4     		bmi	.L27
 258              	.L26:
 159:Generated_Source\PSoC5/CyFlash.c ****                     }
 259              		.loc 1 159 0
 260 0064 0120     		movs	r0, #1
 261 0066 FFF7FEFF 		bl	CyDelayUs
 262              	.LVL16:
 156:Generated_Source\PSoC5/CyFlash.c ****                     {
 263              		.loc 1 156 0
 264 006a 2378     		ldrb	r3, [r4]	@ zero_extendqisi2
 265 006c 9A07     		lsls	r2, r3, #30
 266 006e F9D5     		bpl	.L26
 267              	.L27:
 154:Generated_Source\PSoC5/CyFlash.c **** 
 268              		.loc 1 154 0
 269 0070 0024     		movs	r4, #0
 270 0072 E4E7     		b	.L19
 271              	.LVL17:
 272              	.L41:
 273              	.LBE14:
 274              	.LBE16:
 275              	.LBB17:
 276              	.LBB10:
 204:Generated_Source\PSoC5/CyFlash.c ****             {
 277              		.loc 1 204 0
 278 0074 094D     		ldr	r5, .L43
 279 0076 2B78     		ldrb	r3, [r5]	@ zero_extendqisi2
 280 0078 9B07     		lsls	r3, r3, #30
 281 007a 05D4     		bmi	.L20
 282              	.LVL18:
 283              	.L17:
 207:Generated_Source\PSoC5/CyFlash.c ****             }
 284              		.loc 1 207 0
 285 007c 0120     		movs	r0, #1
ARM GAS  C:\Users\sinow\AppData\Local\Temp\ccraqEQ8.s 			page 11


 286 007e FFF7FEFF 		bl	CyDelayUs
 287              	.LVL19:
 204:Generated_Source\PSoC5/CyFlash.c ****             {
 288              		.loc 1 204 0
 289 0082 2B78     		ldrb	r3, [r5]	@ zero_extendqisi2
 290 0084 9807     		lsls	r0, r3, #30
 291 0086 F9D5     		bpl	.L17
 292              	.L20:
 210:Generated_Source\PSoC5/CyFlash.c ****             {
 293              		.loc 1 210 0
 294 0088 044B     		ldr	r3, .L43
 295 008a 1A78     		ldrb	r2, [r3]	@ zero_extendqisi2
 296 008c 9507     		lsls	r5, r2, #30
 297 008e D6D5     		bpl	.L19
 298 0090 1B78     		ldrb	r3, [r3]	@ zero_extendqisi2
 299 0092 9B08     		lsrs	r3, r3, #2
 300 0094 D3D1     		bne	.L19
 301              	.LVL20:
 215:Generated_Source\PSoC5/CyFlash.c ****     }
 302              		.loc 1 215 0
 303 0096 FFF7FEFF 		bl	CySpcUnlock
 304              	.LVL21:
 305 009a C3E7     		b	.L29
 306              	.L44:
 307              		.align	2
 308              	.L43:
 309 009c 22470040 		.word	1073760034
 310 00a0 00000000 		.word	dieTemperature
 311              	.LBE10:
 312              	.LBE17:
 313              		.cfi_endproc
 314              	.LFE4:
 315              		.size	CySetTemp, .-CySetTemp
 316              		.section	.text.CySetFlashEEBuffer,"ax",%progbits
 317              		.align	2
 318              		.global	CySetFlashEEBuffer
 319              		.thumb
 320              		.thumb_func
 321              		.type	CySetFlashEEBuffer, %function
 322              	CySetFlashEEBuffer:
 323              	.LFB5:
 256:Generated_Source\PSoC5/CyFlash.c **** 
 257:Generated_Source\PSoC5/CyFlash.c **** 
 258:Generated_Source\PSoC5/CyFlash.c **** /*******************************************************************************
 259:Generated_Source\PSoC5/CyFlash.c **** * Function Name: CySetFlashEEBuffer
 260:Generated_Source\PSoC5/CyFlash.c **** ****************************************************************************//**
 261:Generated_Source\PSoC5/CyFlash.c **** *
 262:Generated_Source\PSoC5/CyFlash.c **** *  Sets the user supplied temporary buffer to store SPC data while performing
 263:Generated_Source\PSoC5/CyFlash.c **** *  Flash and EEPROM commands. This buffer is only necessary when the Flash ECC
 264:Generated_Source\PSoC5/CyFlash.c **** *  is disabled.
 265:Generated_Source\PSoC5/CyFlash.c **** *
 266:Generated_Source\PSoC5/CyFlash.c **** *  \param buffer:
 267:Generated_Source\PSoC5/CyFlash.c **** *   The address of a block of memory to store temporary memory. The size of the
 268:Generated_Source\PSoC5/CyFlash.c **** *   block of memory is CYDEV_FLS_ROW_SIZE + CYDEV_ECC_ROW_SIZE.
 269:Generated_Source\PSoC5/CyFlash.c **** *
 270:Generated_Source\PSoC5/CyFlash.c **** * \return
 271:Generated_Source\PSoC5/CyFlash.c **** *  status:
ARM GAS  C:\Users\sinow\AppData\Local\Temp\ccraqEQ8.s 			page 12


 272:Generated_Source\PSoC5/CyFlash.c **** *   CYRET_SUCCESS if successful.
 273:Generated_Source\PSoC5/CyFlash.c **** *   CYRET_BAD_PARAM if the buffer is NULL
 274:Generated_Source\PSoC5/CyFlash.c **** *
 275:Generated_Source\PSoC5/CyFlash.c **** *******************************************************************************/
 276:Generated_Source\PSoC5/CyFlash.c **** cystatus CySetFlashEEBuffer(uint8 * buffer) 
 277:Generated_Source\PSoC5/CyFlash.c **** {
 324              		.loc 1 277 0
 325              		.cfi_startproc
 326              		@ args = 0, pretend = 0, frame = 8
 327              		@ frame_needed = 0, uses_anonymous_args = 0
 328              	.LVL22:
 329 0000 10B5     		push	{r4, lr}
 330              		.cfi_def_cfa_offset 8
 331              		.cfi_offset 4, -8
 332              		.cfi_offset 14, -4
 333 0002 0446     		mov	r4, r0
 334 0004 82B0     		sub	sp, sp, #8
 335              		.cfi_def_cfa_offset 16
 278:Generated_Source\PSoC5/CyFlash.c ****     cystatus status = CYRET_SUCCESS;
 279:Generated_Source\PSoC5/CyFlash.c **** 
 280:Generated_Source\PSoC5/CyFlash.c ****     CySpcStart();
 336              		.loc 1 280 0
 337 0006 FFF7FEFF 		bl	CySpcStart
 338              	.LVL23:
 281:Generated_Source\PSoC5/CyFlash.c **** 
 282:Generated_Source\PSoC5/CyFlash.c ****     #if(CYDEV_ECC_ENABLE == 0)
 283:Generated_Source\PSoC5/CyFlash.c **** 
 284:Generated_Source\PSoC5/CyFlash.c ****         if(NULL == buffer)
 339              		.loc 1 284 0
 340 000a 2CB1     		cbz	r4, .L47
 285:Generated_Source\PSoC5/CyFlash.c ****         {
 286:Generated_Source\PSoC5/CyFlash.c ****             rowBuffer = rowBuffer;
 287:Generated_Source\PSoC5/CyFlash.c ****             status = CYRET_BAD_PARAM;
 288:Generated_Source\PSoC5/CyFlash.c ****         }
 289:Generated_Source\PSoC5/CyFlash.c ****         else if(CySpcLock() != CYRET_SUCCESS)
 341              		.loc 1 289 0
 342 000c FFF7FEFF 		bl	CySpcLock
 343              	.LVL24:
 344 0010 28B1     		cbz	r0, .L50
 290:Generated_Source\PSoC5/CyFlash.c ****         {
 291:Generated_Source\PSoC5/CyFlash.c ****             rowBuffer = rowBuffer;
 292:Generated_Source\PSoC5/CyFlash.c ****             status = CYRET_LOCKED;
 345              		.loc 1 292 0
 346 0012 0420     		movs	r0, #4
 347              	.LVL25:
 293:Generated_Source\PSoC5/CyFlash.c ****         }
 294:Generated_Source\PSoC5/CyFlash.c ****         else
 295:Generated_Source\PSoC5/CyFlash.c ****         {
 296:Generated_Source\PSoC5/CyFlash.c ****             rowBuffer = buffer;
 297:Generated_Source\PSoC5/CyFlash.c ****             CySpcUnlock();
 298:Generated_Source\PSoC5/CyFlash.c ****         }
 299:Generated_Source\PSoC5/CyFlash.c **** 
 300:Generated_Source\PSoC5/CyFlash.c ****     #else
 301:Generated_Source\PSoC5/CyFlash.c **** 
 302:Generated_Source\PSoC5/CyFlash.c ****         /* To suppress warning */
 303:Generated_Source\PSoC5/CyFlash.c ****         buffer = buffer;
 304:Generated_Source\PSoC5/CyFlash.c **** 
ARM GAS  C:\Users\sinow\AppData\Local\Temp\ccraqEQ8.s 			page 13


 305:Generated_Source\PSoC5/CyFlash.c ****     #endif  /* (CYDEV_ECC_ENABLE == 0u) */
 306:Generated_Source\PSoC5/CyFlash.c **** 
 307:Generated_Source\PSoC5/CyFlash.c ****     return(status);
 308:Generated_Source\PSoC5/CyFlash.c **** }
 348              		.loc 1 308 0
 349 0014 02B0     		add	sp, sp, #8
 350              		.cfi_remember_state
 351              		.cfi_def_cfa_offset 8
 352              		@ sp needed
 353 0016 10BD     		pop	{r4, pc}
 354              	.LVL26:
 355              	.L47:
 356              		.cfi_restore_state
 287:Generated_Source\PSoC5/CyFlash.c ****         }
 357              		.loc 1 287 0
 358 0018 0120     		movs	r0, #1
 359              	.LVL27:
 360              		.loc 1 308 0
 361 001a 02B0     		add	sp, sp, #8
 362              		.cfi_remember_state
 363              		.cfi_def_cfa_offset 8
 364              		@ sp needed
 365 001c 10BD     		pop	{r4, pc}
 366              	.LVL28:
 367              	.L50:
 368              		.cfi_restore_state
 369 001e 0190     		str	r0, [sp, #4]
 297:Generated_Source\PSoC5/CyFlash.c ****         }
 370              		.loc 1 297 0
 371 0020 FFF7FEFF 		bl	CySpcUnlock
 372              	.LVL29:
 278:Generated_Source\PSoC5/CyFlash.c **** 
 373              		.loc 1 278 0
 374 0024 0198     		ldr	r0, [sp, #4]
 375              	.LVL30:
 376              		.loc 1 308 0
 377 0026 02B0     		add	sp, sp, #8
 378              		.cfi_def_cfa_offset 8
 379              		@ sp needed
 380 0028 10BD     		pop	{r4, pc}
 381              		.cfi_endproc
 382              	.LFE5:
 383              		.size	CySetFlashEEBuffer, .-CySetFlashEEBuffer
 384 002a 00BF     		.section	.text.CyWriteRowData,"ax",%progbits
 385              		.align	2
 386              		.global	CyWriteRowData
 387              		.thumb
 388              		.thumb_func
 389              		.type	CyWriteRowData, %function
 390              	CyWriteRowData:
 391              	.LFB6:
 309:Generated_Source\PSoC5/CyFlash.c **** 
 310:Generated_Source\PSoC5/CyFlash.c **** 
 311:Generated_Source\PSoC5/CyFlash.c **** /*******************************************************************************
 312:Generated_Source\PSoC5/CyFlash.c **** * Function Name: CyWriteRowData
 313:Generated_Source\PSoC5/CyFlash.c **** ****************************************************************************//**
 314:Generated_Source\PSoC5/CyFlash.c **** *
ARM GAS  C:\Users\sinow\AppData\Local\Temp\ccraqEQ8.s 			page 14


 315:Generated_Source\PSoC5/CyFlash.c **** *  Sends a command to the SPC to load and program a row of data in
 316:Generated_Source\PSoC5/CyFlash.c **** *  Flash or EEPROM.
 317:Generated_Source\PSoC5/CyFlash.c **** *
 318:Generated_Source\PSoC5/CyFlash.c **** *  \param arrayID:    ID of the array to write.
 319:Generated_Source\PSoC5/CyFlash.c **** *   The type of write, Flash or EEPROM, is determined from the array ID.
 320:Generated_Source\PSoC5/CyFlash.c **** *   The arrays in the part are sequential starting at the first ID for the
 321:Generated_Source\PSoC5/CyFlash.c **** *   specific memory type. The array ID for the Flash memory lasts from 0x00 to
 322:Generated_Source\PSoC5/CyFlash.c **** *   0x3F and for the EEPROM memory it lasts from 0x40 to 0x7F.
 323:Generated_Source\PSoC5/CyFlash.c **** *  \param rowAddress: rowAddress of flash row to program.
 324:Generated_Source\PSoC5/CyFlash.c **** *  \param rowData:    Array of bytes to write.
 325:Generated_Source\PSoC5/CyFlash.c **** *
 326:Generated_Source\PSoC5/CyFlash.c **** * \return
 327:Generated_Source\PSoC5/CyFlash.c **** *  status:
 328:Generated_Source\PSoC5/CyFlash.c **** *   CYRET_SUCCESS if successful.
 329:Generated_Source\PSoC5/CyFlash.c **** *   CYRET_LOCKED if the SPC is already in use.
 330:Generated_Source\PSoC5/CyFlash.c **** *   CYRET_CANCELED if command not accepted
 331:Generated_Source\PSoC5/CyFlash.c **** *   CYRET_UNKNOWN if there was an SPC error.
 332:Generated_Source\PSoC5/CyFlash.c **** *
 333:Generated_Source\PSoC5/CyFlash.c **** *******************************************************************************/
 334:Generated_Source\PSoC5/CyFlash.c **** cystatus CyWriteRowData(uint8 arrayId, uint16 rowAddress, const uint8 * rowData) 
 335:Generated_Source\PSoC5/CyFlash.c **** {
 392              		.loc 1 335 0
 393              		.cfi_startproc
 394              		@ args = 0, pretend = 0, frame = 8
 395              		@ frame_needed = 0, uses_anonymous_args = 0
 396              	.LVL31:
 397 0000 F0B5     		push	{r4, r5, r6, r7, lr}
 398              		.cfi_def_cfa_offset 20
 399              		.cfi_offset 4, -20
 400              		.cfi_offset 5, -16
 401              		.cfi_offset 6, -12
 402              		.cfi_offset 7, -8
 403              		.cfi_offset 14, -4
 336:Generated_Source\PSoC5/CyFlash.c ****     uint16 rowSize;
 337:Generated_Source\PSoC5/CyFlash.c ****     cystatus status;
 338:Generated_Source\PSoC5/CyFlash.c **** 
 339:Generated_Source\PSoC5/CyFlash.c ****     rowSize = (arrayId > CY_SPC_LAST_FLASH_ARRAYID) ? CYDEV_EEPROM_ROW_SIZE : CYDEV_FLS_ROW_SIZE;
 404              		.loc 1 339 0
 405 0002 3F28     		cmp	r0, #63
 335:Generated_Source\PSoC5/CyFlash.c ****     uint16 rowSize;
 406              		.loc 1 335 0
 407 0004 83B0     		sub	sp, sp, #12
 408              		.cfi_def_cfa_offset 32
 409              		.loc 1 339 0
 410 0006 0AD8     		bhi	.L81
 411              	.LVL32:
 412              	.LBB22:
 413              	.LBB23:
 340:Generated_Source\PSoC5/CyFlash.c ****     status = CyWriteRowFull(arrayId, rowAddress, rowData, rowSize);
 341:Generated_Source\PSoC5/CyFlash.c **** 
 342:Generated_Source\PSoC5/CyFlash.c ****     return(status);
 343:Generated_Source\PSoC5/CyFlash.c **** }
 344:Generated_Source\PSoC5/CyFlash.c **** 
 345:Generated_Source\PSoC5/CyFlash.c **** 
 346:Generated_Source\PSoC5/CyFlash.c **** /*******************************************************************
 347:Generated_Source\PSoC5/CyFlash.c **** * If "Enable Error Correcting Code (ECC)" and "Store Configuration
 348:Generated_Source\PSoC5/CyFlash.c **** * Data in ECC" DWR options are disabled, ECC section is available
ARM GAS  C:\Users\sinow\AppData\Local\Temp\ccraqEQ8.s 			page 15


 349:Generated_Source\PSoC5/CyFlash.c **** * for user data.
 350:Generated_Source\PSoC5/CyFlash.c **** *******************************************************************/
 351:Generated_Source\PSoC5/CyFlash.c **** #if ((CYDEV_ECC_ENABLE == 0u) && (CYDEV_CONFIGURATION_ECC == 0u))
 352:Generated_Source\PSoC5/CyFlash.c **** 
 353:Generated_Source\PSoC5/CyFlash.c ****     /*******************************************************************************
 354:Generated_Source\PSoC5/CyFlash.c ****     * Function Name: CyWriteRowConfig
 355:Generated_Source\PSoC5/CyFlash.c ****     ****************************************************************************//**
 356:Generated_Source\PSoC5/CyFlash.c ****     *
 357:Generated_Source\PSoC5/CyFlash.c ****     *  Sends a command to the SPC to load and program a row of config data in the
 358:Generated_Source\PSoC5/CyFlash.c ****     *  Flash. This function is only valid for Flash array IDs (not for EEPROM).
 359:Generated_Source\PSoC5/CyFlash.c ****     *
 360:Generated_Source\PSoC5/CyFlash.c ****     *  \param arrayId:      ID of the array to write
 361:Generated_Source\PSoC5/CyFlash.c ****     *   The arrays in the part are sequential starting at the first ID for the
 362:Generated_Source\PSoC5/CyFlash.c ****     *   specific memory type. The array ID for the Flash memory lasts
 363:Generated_Source\PSoC5/CyFlash.c ****     *   from 0x00 to 0x3F.
 364:Generated_Source\PSoC5/CyFlash.c ****     *  \param rowAddress:   The address of the sector to erase.
 365:Generated_Source\PSoC5/CyFlash.c ****     *  \param rowECC:       The array of bytes to write.
 366:Generated_Source\PSoC5/CyFlash.c ****     *
 367:Generated_Source\PSoC5/CyFlash.c ****     * \return
 368:Generated_Source\PSoC5/CyFlash.c ****     *  status:
 369:Generated_Source\PSoC5/CyFlash.c ****     *   CYRET_SUCCESS if successful.
 370:Generated_Source\PSoC5/CyFlash.c ****     *   CYRET_LOCKED if the SPC is already in use.
 371:Generated_Source\PSoC5/CyFlash.c ****     *   CYRET_CANCELED if command not accepted
 372:Generated_Source\PSoC5/CyFlash.c ****     *   CYRET_UNKNOWN if there was an SPC error.
 373:Generated_Source\PSoC5/CyFlash.c ****     *
 374:Generated_Source\PSoC5/CyFlash.c ****     *******************************************************************************/
 375:Generated_Source\PSoC5/CyFlash.c ****     cystatus CyWriteRowConfig(uint8 arrayId, uint16 rowAddress, const uint8 * rowECC)\
 376:Generated_Source\PSoC5/CyFlash.c ****     
 377:Generated_Source\PSoC5/CyFlash.c ****     {
 378:Generated_Source\PSoC5/CyFlash.c ****         cystatus status;
 379:Generated_Source\PSoC5/CyFlash.c **** 
 380:Generated_Source\PSoC5/CyFlash.c ****         status = CyWriteRowFull(arrayId, rowAddress, rowECC, CYDEV_ECC_ROW_SIZE);
 381:Generated_Source\PSoC5/CyFlash.c **** 
 382:Generated_Source\PSoC5/CyFlash.c ****         return (status);
 383:Generated_Source\PSoC5/CyFlash.c ****     }
 384:Generated_Source\PSoC5/CyFlash.c **** 
 385:Generated_Source\PSoC5/CyFlash.c **** #endif  /* ((CYDEV_ECC_ENABLE == 0u) && (CYDEV_CONFIGURATION_ECC == 0u)) */
 386:Generated_Source\PSoC5/CyFlash.c **** 
 387:Generated_Source\PSoC5/CyFlash.c **** 
 388:Generated_Source\PSoC5/CyFlash.c **** 
 389:Generated_Source\PSoC5/CyFlash.c **** /*******************************************************************************
 390:Generated_Source\PSoC5/CyFlash.c **** * Function Name: CyWriteRowFull
 391:Generated_Source\PSoC5/CyFlash.c **** ****************************************************************************//**
 392:Generated_Source\PSoC5/CyFlash.c **** *  Sends a command to the SPC to load and program a row of data in the Flash.
 393:Generated_Source\PSoC5/CyFlash.c **** *  rowData array is expected to contain Flash and ECC data if needed.
 394:Generated_Source\PSoC5/CyFlash.c **** *
 395:Generated_Source\PSoC5/CyFlash.c **** *  \param arrayId:    FLASH or EEPROM array id.
 396:Generated_Source\PSoC5/CyFlash.c **** *  \param rowData:    Pointer to a row of data to write.
 397:Generated_Source\PSoC5/CyFlash.c **** *  \param rowNumber:  Zero based number of the row.
 398:Generated_Source\PSoC5/CyFlash.c **** *  \param rowSize:    Size of the row.
 399:Generated_Source\PSoC5/CyFlash.c **** *
 400:Generated_Source\PSoC5/CyFlash.c **** * \return
 401:Generated_Source\PSoC5/CyFlash.c **** *  CYRET_SUCCESS if successful.
 402:Generated_Source\PSoC5/CyFlash.c **** *  CYRET_LOCKED if the SPC is already in use.
 403:Generated_Source\PSoC5/CyFlash.c **** *  CYRET_CANCELED if command not accepted
 404:Generated_Source\PSoC5/CyFlash.c **** *  CYRET_UNKNOWN if there was an SPC error.
 405:Generated_Source\PSoC5/CyFlash.c **** *
ARM GAS  C:\Users\sinow\AppData\Local\Temp\ccraqEQ8.s 			page 16


 406:Generated_Source\PSoC5/CyFlash.c **** *******************************************************************************/
 407:Generated_Source\PSoC5/CyFlash.c **** cystatus CyWriteRowFull(uint8 arrayId, uint16 rowNumber, const uint8* rowData, uint16 rowSize) \
 408:Generated_Source\PSoC5/CyFlash.c ****         
 409:Generated_Source\PSoC5/CyFlash.c **** {
 410:Generated_Source\PSoC5/CyFlash.c ****     cystatus status = CYRET_SUCCESS;
 414              		.loc 1 410 0
 415 0008 441F     		subs	r4, r0, #5
 416 000a 3A2C     		cmp	r4, #58
 417 000c 8CBF     		ite	hi
 418 000e 0024     		movhi	r4, #0
 419 0010 0124     		movls	r4, #1
 411:Generated_Source\PSoC5/CyFlash.c **** 
 412:Generated_Source\PSoC5/CyFlash.c ****     if((arrayId <=  CY_SPC_LAST_FLASH_ARRAYID) && (arrayId > (CY_FLASH_NUMBER_ARRAYS  + CY_SPC_FIRS
 413:Generated_Source\PSoC5/CyFlash.c ****     {
 414:Generated_Source\PSoC5/CyFlash.c ****         status = CYRET_BAD_PARAM;
 415:Generated_Source\PSoC5/CyFlash.c ****     }
 416:Generated_Source\PSoC5/CyFlash.c **** 
 417:Generated_Source\PSoC5/CyFlash.c ****     if(arrayId > CY_SPC_LAST_EE_ARRAYID)
 418:Generated_Source\PSoC5/CyFlash.c ****     {
 419:Generated_Source\PSoC5/CyFlash.c ****         status = CYRET_BAD_PARAM;
 420:Generated_Source\PSoC5/CyFlash.c ****     }
 421:Generated_Source\PSoC5/CyFlash.c **** 
 422:Generated_Source\PSoC5/CyFlash.c ****     if((arrayId >= CY_SPC_FIRST_EE_ARRAYID) && (arrayId > (CY_FLASH_EEPROM_NUMBER_ARRAYS + CY_SPC_F
 423:Generated_Source\PSoC5/CyFlash.c ****     {
 424:Generated_Source\PSoC5/CyFlash.c ****         status = CYRET_BAD_PARAM;
 425:Generated_Source\PSoC5/CyFlash.c ****     }
 426:Generated_Source\PSoC5/CyFlash.c **** 
 427:Generated_Source\PSoC5/CyFlash.c ****     if(arrayId <=  CY_SPC_LAST_FLASH_ARRAYID)
 428:Generated_Source\PSoC5/CyFlash.c ****     {
 429:Generated_Source\PSoC5/CyFlash.c ****         /* Flash */
 430:Generated_Source\PSoC5/CyFlash.c ****         if(rowNumber > (CY_FLASH_NUMBER_ROWS/CY_FLASH_NUMBER_ARRAYS))
 420              		.loc 1 430 0
 421 0012 B1F5807F 		cmp	r1, #256
 422 0016 17D9     		bls	.L82
 423              	.LVL33:
 424              	.L68:
 425 0018 0120     		movs	r0, #1
 426              	.LVL34:
 427              	.LBE23:
 428              	.LBE22:
 343:Generated_Source\PSoC5/CyFlash.c **** 
 429              		.loc 1 343 0
 430 001a 03B0     		add	sp, sp, #12
 431              		.cfi_remember_state
 432              		.cfi_def_cfa_offset 20
 433              		@ sp needed
 434 001c F0BD     		pop	{r4, r5, r6, r7, pc}
 435              	.LVL35:
 436              	.L81:
 437              		.cfi_restore_state
 438              	.LBB28:
 439              	.LBB26:
 410:Generated_Source\PSoC5/CyFlash.c **** 
 440              		.loc 1 410 0 discriminator 4
 441 001e 4128     		cmp	r0, #65
 442 0020 94BF     		ite	ls
 443 0022 0024     		movls	r4, #0
ARM GAS  C:\Users\sinow\AppData\Local\Temp\ccraqEQ8.s 			page 17


 444 0024 0124     		movhi	r4, #1
 445              	.LVL36:
 431:Generated_Source\PSoC5/CyFlash.c ****         {
 432:Generated_Source\PSoC5/CyFlash.c ****             status = CYRET_BAD_PARAM;
 433:Generated_Source\PSoC5/CyFlash.c ****         }
 434:Generated_Source\PSoC5/CyFlash.c ****     }
 435:Generated_Source\PSoC5/CyFlash.c ****     else
 436:Generated_Source\PSoC5/CyFlash.c ****     {
 437:Generated_Source\PSoC5/CyFlash.c ****         /* EEPROM */
 438:Generated_Source\PSoC5/CyFlash.c ****         if(rowNumber > (CY_EEPROM_NUMBER_ROWS/CY_FLASH_EEPROM_NUMBER_ARRAYS))
 439:Generated_Source\PSoC5/CyFlash.c ****         {
 440:Generated_Source\PSoC5/CyFlash.c ****             status = CYRET_BAD_PARAM;
 446              		.loc 1 440 0 discriminator 4
 447 0026 8129     		cmp	r1, #129
 448 0028 28BF     		it	cs
 449 002a 0124     		movcs	r4, #1
 450              	.LVL37:
 430:Generated_Source\PSoC5/CyFlash.c ****         {
 451              		.loc 1 430 0 discriminator 4
 452 002c 1027     		movs	r7, #16
 453              	.LVL38:
 454              	.L63:
 441:Generated_Source\PSoC5/CyFlash.c ****         }
 442:Generated_Source\PSoC5/CyFlash.c **** 
 443:Generated_Source\PSoC5/CyFlash.c ****         if(CY_EEPROM_SIZEOF_ROW != rowSize)
 444:Generated_Source\PSoC5/CyFlash.c ****         {
 445:Generated_Source\PSoC5/CyFlash.c ****             status = CYRET_BAD_PARAM;
 446:Generated_Source\PSoC5/CyFlash.c ****         }
 447:Generated_Source\PSoC5/CyFlash.c ****     }
 448:Generated_Source\PSoC5/CyFlash.c **** 
 449:Generated_Source\PSoC5/CyFlash.c ****     if(rowData == NULL)
 455              		.loc 1 449 0
 456 002e 002A     		cmp	r2, #0
 457 0030 F2D0     		beq	.L68
 450:Generated_Source\PSoC5/CyFlash.c ****     {
 451:Generated_Source\PSoC5/CyFlash.c ****         status = CYRET_BAD_PARAM;
 452:Generated_Source\PSoC5/CyFlash.c ****     }
 453:Generated_Source\PSoC5/CyFlash.c **** 
 454:Generated_Source\PSoC5/CyFlash.c **** 
 455:Generated_Source\PSoC5/CyFlash.c ****     if(status == CYRET_SUCCESS)
 458              		.loc 1 455 0
 459 0032 002C     		cmp	r4, #0
 460 0034 F0D1     		bne	.L68
 461 0036 1646     		mov	r6, r2
 462 0038 0D46     		mov	r5, r1
 463 003a 0446     		mov	r4, r0
 464              	.LVL39:
 456:Generated_Source\PSoC5/CyFlash.c ****     {
 457:Generated_Source\PSoC5/CyFlash.c ****         if(CySpcLock() == CYRET_SUCCESS)
 465              		.loc 1 457 0
 466 003c FFF7FEFF 		bl	CySpcLock
 467              	.LVL40:
 468 0040 28B1     		cbz	r0, .L83
 458:Generated_Source\PSoC5/CyFlash.c ****         {
 459:Generated_Source\PSoC5/CyFlash.c ****             /* Load row data into SPC internal latch */
 460:Generated_Source\PSoC5/CyFlash.c ****             status = CySpcLoadRowFull(arrayId, rowNumber, rowData, rowSize);
 461:Generated_Source\PSoC5/CyFlash.c **** 
ARM GAS  C:\Users\sinow\AppData\Local\Temp\ccraqEQ8.s 			page 18


 462:Generated_Source\PSoC5/CyFlash.c ****             if(CYRET_STARTED == status)
 463:Generated_Source\PSoC5/CyFlash.c ****             {
 464:Generated_Source\PSoC5/CyFlash.c ****                 while(CY_SPC_BUSY)
 465:Generated_Source\PSoC5/CyFlash.c ****                 {
 466:Generated_Source\PSoC5/CyFlash.c ****                     /* Wait for SPC to finish and get SPC status */
 467:Generated_Source\PSoC5/CyFlash.c ****                     CyDelayUs(1u);
 468:Generated_Source\PSoC5/CyFlash.c ****                 }
 469:Generated_Source\PSoC5/CyFlash.c **** 
 470:Generated_Source\PSoC5/CyFlash.c ****                 /* Hide SPC status */
 471:Generated_Source\PSoC5/CyFlash.c ****                 if(CY_SPC_STATUS_SUCCESS == CY_SPC_READ_STATUS)
 472:Generated_Source\PSoC5/CyFlash.c ****                 {
 473:Generated_Source\PSoC5/CyFlash.c ****                     status = CYRET_SUCCESS;
 474:Generated_Source\PSoC5/CyFlash.c ****                 }
 475:Generated_Source\PSoC5/CyFlash.c ****                 else
 476:Generated_Source\PSoC5/CyFlash.c ****                 {
 477:Generated_Source\PSoC5/CyFlash.c ****                     status = CYRET_UNKNOWN;
 478:Generated_Source\PSoC5/CyFlash.c ****                 }
 479:Generated_Source\PSoC5/CyFlash.c **** 
 480:Generated_Source\PSoC5/CyFlash.c ****                 if(CYRET_SUCCESS == status)
 481:Generated_Source\PSoC5/CyFlash.c ****                 {
 482:Generated_Source\PSoC5/CyFlash.c ****                     /* Erase and program flash with data from SPC interval latch */
 483:Generated_Source\PSoC5/CyFlash.c ****                     status = CySpcWriteRow(arrayId, rowNumber, dieTemperature[0u], dieTemperature[1
 484:Generated_Source\PSoC5/CyFlash.c **** 
 485:Generated_Source\PSoC5/CyFlash.c ****                     if(CYRET_STARTED == status)
 486:Generated_Source\PSoC5/CyFlash.c ****                     {
 487:Generated_Source\PSoC5/CyFlash.c ****                         while(CY_SPC_BUSY)
 488:Generated_Source\PSoC5/CyFlash.c ****                         {
 489:Generated_Source\PSoC5/CyFlash.c ****                             /* Wait for SPC to finish and get SPC status */
 490:Generated_Source\PSoC5/CyFlash.c ****                             CyDelayUs(1u);
 491:Generated_Source\PSoC5/CyFlash.c ****                         }
 492:Generated_Source\PSoC5/CyFlash.c **** 
 493:Generated_Source\PSoC5/CyFlash.c ****                         /* Hide SPC status */
 494:Generated_Source\PSoC5/CyFlash.c ****                         if(CY_SPC_STATUS_SUCCESS == CY_SPC_READ_STATUS)
 495:Generated_Source\PSoC5/CyFlash.c ****                         {
 496:Generated_Source\PSoC5/CyFlash.c ****                             status = CYRET_SUCCESS;
 497:Generated_Source\PSoC5/CyFlash.c ****                         }
 498:Generated_Source\PSoC5/CyFlash.c ****                         else
 499:Generated_Source\PSoC5/CyFlash.c ****                         {
 500:Generated_Source\PSoC5/CyFlash.c ****                             status = CYRET_UNKNOWN;
 501:Generated_Source\PSoC5/CyFlash.c ****                         }
 502:Generated_Source\PSoC5/CyFlash.c ****                     }
 503:Generated_Source\PSoC5/CyFlash.c ****                 }
 504:Generated_Source\PSoC5/CyFlash.c ****             }
 505:Generated_Source\PSoC5/CyFlash.c ****             CySpcUnlock();
 506:Generated_Source\PSoC5/CyFlash.c ****         }   /* if(CySpcLock() == CYRET_SUCCESS) */
 507:Generated_Source\PSoC5/CyFlash.c ****         else
 508:Generated_Source\PSoC5/CyFlash.c ****         {
 509:Generated_Source\PSoC5/CyFlash.c ****             status = CYRET_LOCKED;
 469              		.loc 1 509 0
 470 0042 0420     		movs	r0, #4
 471              	.LVL41:
 472              	.L78:
 473              	.LBE26:
 474              	.LBE28:
 343:Generated_Source\PSoC5/CyFlash.c **** 
 475              		.loc 1 343 0
 476 0044 03B0     		add	sp, sp, #12
ARM GAS  C:\Users\sinow\AppData\Local\Temp\ccraqEQ8.s 			page 19


 477              		.cfi_remember_state
 478              		.cfi_def_cfa_offset 20
 479              		@ sp needed
 480 0046 F0BD     		pop	{r4, r5, r6, r7, pc}
 481              	.LVL42:
 482              	.L82:
 483              		.cfi_restore_state
 484              	.LBB29:
 485              	.LBB27:
 430:Generated_Source\PSoC5/CyFlash.c ****         {
 486              		.loc 1 430 0
 487 0048 4FF48077 		mov	r7, #256
 488 004c EFE7     		b	.L63
 489              	.LVL43:
 490              	.L83:
 491              	.LBB24:
 492              	.LBB25:
 460:Generated_Source\PSoC5/CyFlash.c **** 
 493              		.loc 1 460 0
 494 004e 3B46     		mov	r3, r7
 495 0050 3246     		mov	r2, r6
 496 0052 2946     		mov	r1, r5
 497 0054 2046     		mov	r0, r4
 498 0056 FFF7FEFF 		bl	CySpcLoadRowFull
 499              	.LVL44:
 462:Generated_Source\PSoC5/CyFlash.c ****             {
 500              		.loc 1 462 0
 501 005a 0728     		cmp	r0, #7
 502 005c 04D0     		beq	.L84
 503              	.LVL45:
 504              	.L55:
 505 005e 0190     		str	r0, [sp, #4]
 506              	.LVL46:
 505:Generated_Source\PSoC5/CyFlash.c ****         }   /* if(CySpcLock() == CYRET_SUCCESS) */
 507              		.loc 1 505 0
 508 0060 FFF7FEFF 		bl	CySpcUnlock
 509              	.LVL47:
 510 0064 0198     		ldr	r0, [sp, #4]
 511 0066 EDE7     		b	.L78
 512              	.LVL48:
 513              	.L84:
 464:Generated_Source\PSoC5/CyFlash.c ****                 {
 514              		.loc 1 464 0
 515 0068 164E     		ldr	r6, .L85
 516              	.LVL49:
 517 006a 3378     		ldrb	r3, [r6]	@ zero_extendqisi2
 518 006c 9B07     		lsls	r3, r3, #30
 519 006e 05D4     		bmi	.L59
 520              	.LVL50:
 521              	.L56:
 467:Generated_Source\PSoC5/CyFlash.c ****                 }
 522              		.loc 1 467 0
 523 0070 0120     		movs	r0, #1
 524 0072 FFF7FEFF 		bl	CyDelayUs
 525              	.LVL51:
 464:Generated_Source\PSoC5/CyFlash.c ****                 {
 526              		.loc 1 464 0
ARM GAS  C:\Users\sinow\AppData\Local\Temp\ccraqEQ8.s 			page 20


 527 0076 3378     		ldrb	r3, [r6]	@ zero_extendqisi2
 528 0078 9807     		lsls	r0, r3, #30
 529 007a F9D5     		bpl	.L56
 530              	.L59:
 471:Generated_Source\PSoC5/CyFlash.c ****                 {
 531              		.loc 1 471 0
 532 007c 114E     		ldr	r6, .L85
 533 007e 3378     		ldrb	r3, [r6]	@ zero_extendqisi2
 534 0080 9F07     		lsls	r7, r3, #30
 535              	.LVL52:
 536 0082 1BD5     		bpl	.L58
 537 0084 3378     		ldrb	r3, [r6]	@ zero_extendqisi2
 538 0086 9B08     		lsrs	r3, r3, #2
 539 0088 18D1     		bne	.L58
 540              	.LVL53:
 483:Generated_Source\PSoC5/CyFlash.c **** 
 541              		.loc 1 483 0
 542 008a 0F4A     		ldr	r2, .L85+4
 543 008c 2946     		mov	r1, r5
 544 008e 5378     		ldrb	r3, [r2, #1]	@ zero_extendqisi2
 545 0090 2046     		mov	r0, r4
 546 0092 1278     		ldrb	r2, [r2]	@ zero_extendqisi2
 547 0094 FFF7FEFF 		bl	CySpcWriteRow
 548              	.LVL54:
 485:Generated_Source\PSoC5/CyFlash.c ****                     {
 549              		.loc 1 485 0
 550 0098 0728     		cmp	r0, #7
 551 009a E0D1     		bne	.L55
 552 009c 02E0     		b	.L80
 553              	.LVL55:
 554              	.L61:
 490:Generated_Source\PSoC5/CyFlash.c ****                         }
 555              		.loc 1 490 0
 556 009e 0120     		movs	r0, #1
 557 00a0 FFF7FEFF 		bl	CyDelayUs
 558              	.LVL56:
 559              	.L80:
 487:Generated_Source\PSoC5/CyFlash.c ****                         {
 560              		.loc 1 487 0
 561 00a4 3378     		ldrb	r3, [r6]	@ zero_extendqisi2
 562 00a6 9907     		lsls	r1, r3, #30
 563 00a8 F9D5     		bpl	.L61
 494:Generated_Source\PSoC5/CyFlash.c ****                         {
 564              		.loc 1 494 0
 565 00aa 064B     		ldr	r3, .L85
 566 00ac 1A78     		ldrb	r2, [r3]	@ zero_extendqisi2
 567 00ae 9207     		lsls	r2, r2, #30
 568 00b0 04D5     		bpl	.L58
 569 00b2 1B78     		ldrb	r3, [r3]	@ zero_extendqisi2
 570 00b4 9B08     		lsrs	r3, r3, #2
 571 00b6 01D1     		bne	.L58
 496:Generated_Source\PSoC5/CyFlash.c ****                         }
 572              		.loc 1 496 0
 573 00b8 1846     		mov	r0, r3
 574 00ba D0E7     		b	.L55
 575              	.L58:
 576              	.LVL57:
ARM GAS  C:\Users\sinow\AppData\Local\Temp\ccraqEQ8.s 			page 21


 500:Generated_Source\PSoC5/CyFlash.c ****                         }
 577              		.loc 1 500 0
 578 00bc 4FF0FF30 		mov	r0, #-1
 579 00c0 CDE7     		b	.L55
 580              	.L86:
 581 00c2 00BF     		.align	2
 582              	.L85:
 583 00c4 22470040 		.word	1073760034
 584 00c8 00000000 		.word	dieTemperature
 585              	.LBE25:
 586              	.LBE24:
 587              	.LBE27:
 588              	.LBE29:
 589              		.cfi_endproc
 590              	.LFE6:
 591              		.size	CyWriteRowData, .-CyWriteRowData
 592              		.section	.text.CyWriteRowFull,"ax",%progbits
 593              		.align	2
 594              		.global	CyWriteRowFull
 595              		.thumb
 596              		.thumb_func
 597              		.type	CyWriteRowFull, %function
 598              	CyWriteRowFull:
 599              	.LFB7:
 409:Generated_Source\PSoC5/CyFlash.c ****     cystatus status = CYRET_SUCCESS;
 600              		.loc 1 409 0
 601              		.cfi_startproc
 602              		@ args = 0, pretend = 0, frame = 8
 603              		@ frame_needed = 0, uses_anonymous_args = 0
 604              	.LVL58:
 605 0000 F0B5     		push	{r4, r5, r6, r7, lr}
 606              		.cfi_def_cfa_offset 20
 607              		.cfi_offset 4, -20
 608              		.cfi_offset 5, -16
 609              		.cfi_offset 6, -12
 610              		.cfi_offset 7, -8
 611              		.cfi_offset 14, -4
 422:Generated_Source\PSoC5/CyFlash.c ****     {
 612              		.loc 1 422 0
 613 0002 4128     		cmp	r0, #65
 409:Generated_Source\PSoC5/CyFlash.c ****     cystatus status = CYRET_SUCCESS;
 614              		.loc 1 409 0
 615 0004 83B0     		sub	sp, sp, #12
 616              		.cfi_def_cfa_offset 32
 422:Generated_Source\PSoC5/CyFlash.c ****     {
 617              		.loc 1 422 0
 618 0006 15D8     		bhi	.L100
 410:Generated_Source\PSoC5/CyFlash.c **** 
 619              		.loc 1 410 0
 620 0008 441F     		subs	r4, r0, #5
 621 000a 3A2C     		cmp	r4, #58
 622 000c 8CBF     		ite	hi
 623 000e 0024     		movhi	r4, #0
 624 0010 0124     		movls	r4, #1
 427:Generated_Source\PSoC5/CyFlash.c ****     {
 625              		.loc 1 427 0
 626 0012 3F28     		cmp	r0, #63
ARM GAS  C:\Users\sinow\AppData\Local\Temp\ccraqEQ8.s 			page 22


 627 0014 0FD8     		bhi	.L88
 430:Generated_Source\PSoC5/CyFlash.c ****         {
 628              		.loc 1 430 0
 629 0016 B1F5807F 		cmp	r1, #256
 630 001a 11D8     		bhi	.L104
 631              	.LVL59:
 632              	.L90:
 449:Generated_Source\PSoC5/CyFlash.c ****     {
 633              		.loc 1 449 0
 634 001c 82B1     		cbz	r2, .L104
 455:Generated_Source\PSoC5/CyFlash.c ****     {
 635              		.loc 1 455 0
 636 001e 7CB9     		cbnz	r4, .L104
 637 0020 1E46     		mov	r6, r3
 638 0022 1746     		mov	r7, r2
 639 0024 0D46     		mov	r5, r1
 640 0026 0446     		mov	r4, r0
 641              	.LVL60:
 457:Generated_Source\PSoC5/CyFlash.c ****         {
 642              		.loc 1 457 0
 643 0028 FFF7FEFF 		bl	CySpcLock
 644              	.LVL61:
 645 002c 58B1     		cbz	r0, .L119
 646              		.loc 1 509 0
 647 002e 0420     		movs	r0, #4
 648              	.LVL62:
 510:Generated_Source\PSoC5/CyFlash.c ****         }
 511:Generated_Source\PSoC5/CyFlash.c ****     }
 512:Generated_Source\PSoC5/CyFlash.c **** 
 513:Generated_Source\PSoC5/CyFlash.c ****     return(status);
 514:Generated_Source\PSoC5/CyFlash.c **** }
 649              		.loc 1 514 0
 650 0030 03B0     		add	sp, sp, #12
 651              		.cfi_remember_state
 652              		.cfi_def_cfa_offset 20
 653              		@ sp needed
 654 0032 F0BD     		pop	{r4, r5, r6, r7, pc}
 655              	.LVL63:
 656              	.L100:
 657              		.cfi_restore_state
 658 0034 0124     		movs	r4, #1
 659              	.L88:
 660              	.LVL64:
 440:Generated_Source\PSoC5/CyFlash.c ****         }
 661              		.loc 1 440 0
 662 0036 8129     		cmp	r1, #129
 663 0038 28BF     		it	cs
 664 003a 0124     		movcs	r4, #1
 665              	.LVL65:
 443:Generated_Source\PSoC5/CyFlash.c ****         {
 666              		.loc 1 443 0
 667 003c 102B     		cmp	r3, #16
 668 003e EDD0     		beq	.L90
 669              	.LVL66:
 670              	.L104:
 671 0040 0120     		movs	r0, #1
 672              	.LVL67:
ARM GAS  C:\Users\sinow\AppData\Local\Temp\ccraqEQ8.s 			page 23


 673              	.L116:
 674              		.loc 1 514 0
 675 0042 03B0     		add	sp, sp, #12
 676              		.cfi_remember_state
 677              		.cfi_def_cfa_offset 20
 678              		@ sp needed
 679 0044 F0BD     		pop	{r4, r5, r6, r7, pc}
 680              	.LVL68:
 681              	.L119:
 682              		.cfi_restore_state
 683              	.LBB32:
 684              	.LBB33:
 460:Generated_Source\PSoC5/CyFlash.c **** 
 685              		.loc 1 460 0
 686 0046 3346     		mov	r3, r6
 687 0048 3A46     		mov	r2, r7
 688 004a 2946     		mov	r1, r5
 689 004c 2046     		mov	r0, r4
 690 004e FFF7FEFF 		bl	CySpcLoadRowFull
 691              	.LVL69:
 462:Generated_Source\PSoC5/CyFlash.c ****             {
 692              		.loc 1 462 0
 693 0052 0728     		cmp	r0, #7
 694 0054 04D0     		beq	.L120
 695              	.LVL70:
 696              	.L92:
 697 0056 0190     		str	r0, [sp, #4]
 698              	.LVL71:
 505:Generated_Source\PSoC5/CyFlash.c ****         }   /* if(CySpcLock() == CYRET_SUCCESS) */
 699              		.loc 1 505 0
 700 0058 FFF7FEFF 		bl	CySpcUnlock
 701              	.LVL72:
 702 005c 0198     		ldr	r0, [sp, #4]
 703 005e F0E7     		b	.L116
 704              	.LVL73:
 705              	.L120:
 464:Generated_Source\PSoC5/CyFlash.c ****                 {
 706              		.loc 1 464 0
 707 0060 164E     		ldr	r6, .L121
 708              	.LVL74:
 709 0062 3378     		ldrb	r3, [r6]	@ zero_extendqisi2
 710 0064 9B07     		lsls	r3, r3, #30
 711 0066 05D4     		bmi	.L96
 712              	.LVL75:
 713              	.L93:
 467:Generated_Source\PSoC5/CyFlash.c ****                 }
 714              		.loc 1 467 0
 715 0068 0120     		movs	r0, #1
 716 006a FFF7FEFF 		bl	CyDelayUs
 717              	.LVL76:
 464:Generated_Source\PSoC5/CyFlash.c ****                 {
 718              		.loc 1 464 0
 719 006e 3378     		ldrb	r3, [r6]	@ zero_extendqisi2
 720 0070 9807     		lsls	r0, r3, #30
 721 0072 F9D5     		bpl	.L93
 722              	.L96:
 471:Generated_Source\PSoC5/CyFlash.c ****                 {
ARM GAS  C:\Users\sinow\AppData\Local\Temp\ccraqEQ8.s 			page 24


 723              		.loc 1 471 0
 724 0074 114E     		ldr	r6, .L121
 725 0076 3378     		ldrb	r3, [r6]	@ zero_extendqisi2
 726 0078 9F07     		lsls	r7, r3, #30
 727              	.LVL77:
 728 007a 1BD5     		bpl	.L95
 729 007c 3378     		ldrb	r3, [r6]	@ zero_extendqisi2
 730 007e 9B08     		lsrs	r3, r3, #2
 731 0080 18D1     		bne	.L95
 732              	.LVL78:
 483:Generated_Source\PSoC5/CyFlash.c **** 
 733              		.loc 1 483 0
 734 0082 0F4A     		ldr	r2, .L121+4
 735 0084 2946     		mov	r1, r5
 736 0086 5378     		ldrb	r3, [r2, #1]	@ zero_extendqisi2
 737 0088 2046     		mov	r0, r4
 738 008a 1278     		ldrb	r2, [r2]	@ zero_extendqisi2
 739 008c FFF7FEFF 		bl	CySpcWriteRow
 740              	.LVL79:
 485:Generated_Source\PSoC5/CyFlash.c ****                     {
 741              		.loc 1 485 0
 742 0090 0728     		cmp	r0, #7
 743 0092 E0D1     		bne	.L92
 744 0094 02E0     		b	.L118
 745              	.LVL80:
 746              	.L98:
 490:Generated_Source\PSoC5/CyFlash.c ****                         }
 747              		.loc 1 490 0
 748 0096 0120     		movs	r0, #1
 749 0098 FFF7FEFF 		bl	CyDelayUs
 750              	.LVL81:
 751              	.L118:
 487:Generated_Source\PSoC5/CyFlash.c ****                         {
 752              		.loc 1 487 0
 753 009c 3378     		ldrb	r3, [r6]	@ zero_extendqisi2
 754 009e 9907     		lsls	r1, r3, #30
 755 00a0 F9D5     		bpl	.L98
 494:Generated_Source\PSoC5/CyFlash.c ****                         {
 756              		.loc 1 494 0
 757 00a2 064B     		ldr	r3, .L121
 758 00a4 1A78     		ldrb	r2, [r3]	@ zero_extendqisi2
 759 00a6 9207     		lsls	r2, r2, #30
 760 00a8 04D5     		bpl	.L95
 761 00aa 1B78     		ldrb	r3, [r3]	@ zero_extendqisi2
 762 00ac 9B08     		lsrs	r3, r3, #2
 763 00ae 01D1     		bne	.L95
 496:Generated_Source\PSoC5/CyFlash.c ****                         }
 764              		.loc 1 496 0
 765 00b0 1846     		mov	r0, r3
 766 00b2 D0E7     		b	.L92
 767              	.L95:
 768              	.LVL82:
 500:Generated_Source\PSoC5/CyFlash.c ****                         }
 769              		.loc 1 500 0
 770 00b4 4FF0FF30 		mov	r0, #-1
 771 00b8 CDE7     		b	.L92
 772              	.L122:
ARM GAS  C:\Users\sinow\AppData\Local\Temp\ccraqEQ8.s 			page 25


 773 00ba 00BF     		.align	2
 774              	.L121:
 775 00bc 22470040 		.word	1073760034
 776 00c0 00000000 		.word	dieTemperature
 777              	.LBE33:
 778              	.LBE32:
 779              		.cfi_endproc
 780              	.LFE7:
 781              		.size	CyWriteRowFull, .-CyWriteRowFull
 782              		.section	.text.CyFlash_SetWaitCycles,"ax",%progbits
 783              		.align	2
 784              		.global	CyFlash_SetWaitCycles
 785              		.thumb
 786              		.thumb_func
 787              		.type	CyFlash_SetWaitCycles, %function
 788              	CyFlash_SetWaitCycles:
 789              	.LFB8:
 515:Generated_Source\PSoC5/CyFlash.c **** 
 516:Generated_Source\PSoC5/CyFlash.c **** 
 517:Generated_Source\PSoC5/CyFlash.c **** /*******************************************************************************
 518:Generated_Source\PSoC5/CyFlash.c **** * Function Name: CyFlash_SetWaitCycles
 519:Generated_Source\PSoC5/CyFlash.c **** ****************************************************************************//**
 520:Generated_Source\PSoC5/CyFlash.c **** *
 521:Generated_Source\PSoC5/CyFlash.c **** *  Sets the number of clock cycles the cache will wait before it samples data
 522:Generated_Source\PSoC5/CyFlash.c **** *  coming back from the Flash. This function must be called before increasing
 523:Generated_Source\PSoC5/CyFlash.c **** *  the CPU clock frequency. It can optionally be called after lowering the CPU
 524:Generated_Source\PSoC5/CyFlash.c **** *  clock frequency in order to improve the CPU performance.
 525:Generated_Source\PSoC5/CyFlash.c **** *
 526:Generated_Source\PSoC5/CyFlash.c **** *  \param uint8 freq:
 527:Generated_Source\PSoC5/CyFlash.c **** *   Frequency of operation in Megahertz.
 528:Generated_Source\PSoC5/CyFlash.c **** *
 529:Generated_Source\PSoC5/CyFlash.c **** *******************************************************************************/
 530:Generated_Source\PSoC5/CyFlash.c **** void CyFlash_SetWaitCycles(uint8 freq) 
 531:Generated_Source\PSoC5/CyFlash.c **** {
 790              		.loc 1 531 0
 791              		.cfi_startproc
 792              		@ args = 0, pretend = 0, frame = 0
 793              		@ frame_needed = 0, uses_anonymous_args = 0
 794              	.LVL83:
 795 0000 38B5     		push	{r3, r4, r5, lr}
 796              		.cfi_def_cfa_offset 16
 797              		.cfi_offset 3, -16
 798              		.cfi_offset 4, -12
 799              		.cfi_offset 5, -8
 800              		.cfi_offset 14, -4
 801              		.loc 1 531 0
 802 0002 0446     		mov	r4, r0
 532:Generated_Source\PSoC5/CyFlash.c ****     uint8 interruptState;
 533:Generated_Source\PSoC5/CyFlash.c **** 
 534:Generated_Source\PSoC5/CyFlash.c ****     /* Save current global interrupt enable and disable it */
 535:Generated_Source\PSoC5/CyFlash.c ****     interruptState = CyEnterCriticalSection();
 803              		.loc 1 535 0
 804 0004 FFF7FEFF 		bl	CyEnterCriticalSection
 805              	.LVL84:
 536:Generated_Source\PSoC5/CyFlash.c **** 
 537:Generated_Source\PSoC5/CyFlash.c ****     /***************************************************************************
 538:Generated_Source\PSoC5/CyFlash.c ****     * The number of clock cycles the cache will wait before it samples data
ARM GAS  C:\Users\sinow\AppData\Local\Temp\ccraqEQ8.s 			page 26


 539:Generated_Source\PSoC5/CyFlash.c ****     * coming back from the Flash must be equal or greater to to the CPU frequency
 540:Generated_Source\PSoC5/CyFlash.c ****     * outlined in clock cycles.
 541:Generated_Source\PSoC5/CyFlash.c ****     ***************************************************************************/
 542:Generated_Source\PSoC5/CyFlash.c **** 
 543:Generated_Source\PSoC5/CyFlash.c ****     if (freq < CY_FLASH_CACHE_WS_1_FREQ_MAX)
 806              		.loc 1 543 0
 807 0008 0F2C     		cmp	r4, #15
 535:Generated_Source\PSoC5/CyFlash.c **** 
 808              		.loc 1 535 0
 809 000a 0546     		mov	r5, r0
 810              	.LVL85:
 811              		.loc 1 543 0
 812 000c 1BD9     		bls	.L131
 544:Generated_Source\PSoC5/CyFlash.c ****     {
 545:Generated_Source\PSoC5/CyFlash.c ****         CY_FLASH_CONTROL_REG = (CY_FLASH_CONTROL_REG & (uint8)(~CY_FLASH_CACHE_WS_VALUE_MASK)) |
 546:Generated_Source\PSoC5/CyFlash.c ****                                     CY_FLASH_CACHE_WS_1_VALUE_MASK;
 547:Generated_Source\PSoC5/CyFlash.c ****     }
 548:Generated_Source\PSoC5/CyFlash.c ****     else if (freq < CY_FLASH_CACHE_WS_2_FREQ_MAX)
 813              		.loc 1 548 0
 814 000e 202C     		cmp	r4, #32
 815 0010 0DD9     		bls	.L132
 549:Generated_Source\PSoC5/CyFlash.c ****     {
 550:Generated_Source\PSoC5/CyFlash.c ****         CY_FLASH_CONTROL_REG = (CY_FLASH_CONTROL_REG & (uint8)(~CY_FLASH_CACHE_WS_VALUE_MASK)) |
 551:Generated_Source\PSoC5/CyFlash.c ****                                     CY_FLASH_CACHE_WS_2_VALUE_MASK;
 552:Generated_Source\PSoC5/CyFlash.c ****     }
 553:Generated_Source\PSoC5/CyFlash.c ****     else if (freq < CY_FLASH_CACHE_WS_3_FREQ_MAX)
 816              		.loc 1 553 0
 817 0012 312C     		cmp	r4, #49
 818 0014 29D9     		bls	.L133
 554:Generated_Source\PSoC5/CyFlash.c ****     {
 555:Generated_Source\PSoC5/CyFlash.c ****         CY_FLASH_CONTROL_REG = (CY_FLASH_CONTROL_REG & (uint8)(~CY_FLASH_CACHE_WS_VALUE_MASK)) |
 556:Generated_Source\PSoC5/CyFlash.c ****                                     CY_FLASH_CACHE_WS_3_VALUE_MASK;
 557:Generated_Source\PSoC5/CyFlash.c ****     }
 558:Generated_Source\PSoC5/CyFlash.c **** #if (CY_PSOC5)
 559:Generated_Source\PSoC5/CyFlash.c ****     else if (freq < CY_FLASH_CACHE_WS_4_FREQ_MAX)
 819              		.loc 1 559 0
 820 0016 422C     		cmp	r4, #66
 821 0018 21D9     		bls	.L134
 560:Generated_Source\PSoC5/CyFlash.c ****     {
 561:Generated_Source\PSoC5/CyFlash.c ****         CY_FLASH_CONTROL_REG = (CY_FLASH_CONTROL_REG & (uint8)(~CY_FLASH_CACHE_WS_VALUE_MASK)) |
 562:Generated_Source\PSoC5/CyFlash.c ****                                     CY_FLASH_CACHE_WS_4_VALUE_MASK;
 563:Generated_Source\PSoC5/CyFlash.c ****     }
 564:Generated_Source\PSoC5/CyFlash.c ****     else if (freq <= CY_FLASH_CACHE_WS_5_FREQ_MAX)
 822              		.loc 1 564 0
 823 001a 532C     		cmp	r4, #83
 824 001c 31D8     		bhi	.L129
 565:Generated_Source\PSoC5/CyFlash.c ****     {
 566:Generated_Source\PSoC5/CyFlash.c ****         CY_FLASH_CONTROL_REG = (CY_FLASH_CONTROL_REG & (uint8)(~CY_FLASH_CACHE_WS_VALUE_MASK)) |
 825              		.loc 1 566 0
 826 001e 1B4A     		ldr	r2, .L135
 827 0020 1378     		ldrb	r3, [r2]	@ zero_extendqisi2
 828 0022 03F01F03 		and	r3, r3, #31
 829 0026 43F02003 		orr	r3, r3, #32
 830 002a 1370     		strb	r3, [r2]
 831 002c 06E0     		b	.L125
 832              	.L132:
 550:Generated_Source\PSoC5/CyFlash.c ****                                     CY_FLASH_CACHE_WS_2_VALUE_MASK;
ARM GAS  C:\Users\sinow\AppData\Local\Temp\ccraqEQ8.s 			page 27


 833              		.loc 1 550 0
 834 002e 174A     		ldr	r2, .L135
 835 0030 1378     		ldrb	r3, [r2]	@ zero_extendqisi2
 836 0032 03F01F03 		and	r3, r3, #31
 837 0036 43F08003 		orr	r3, r3, #128
 838 003a 1370     		strb	r3, [r2]
 839              	.L125:
 567:Generated_Source\PSoC5/CyFlash.c ****                                     CY_FLASH_CACHE_WS_5_VALUE_MASK;
 568:Generated_Source\PSoC5/CyFlash.c ****     }
 569:Generated_Source\PSoC5/CyFlash.c **** #endif  /* (CY_PSOC5) */
 570:Generated_Source\PSoC5/CyFlash.c ****     else
 571:Generated_Source\PSoC5/CyFlash.c ****     {
 572:Generated_Source\PSoC5/CyFlash.c ****         /* Halt CPU in debug mode if frequency is invalid */
 573:Generated_Source\PSoC5/CyFlash.c ****         CYASSERT(0u != 0u);
 574:Generated_Source\PSoC5/CyFlash.c ****     }
 575:Generated_Source\PSoC5/CyFlash.c **** 
 576:Generated_Source\PSoC5/CyFlash.c ****     /* Restore global interrupt enable state */
 577:Generated_Source\PSoC5/CyFlash.c ****     CyExitCriticalSection(interruptState);
 840              		.loc 1 577 0
 841 003c 2846     		mov	r0, r5
 578:Generated_Source\PSoC5/CyFlash.c **** }
 842              		.loc 1 578 0
 843 003e BDE83840 		pop	{r3, r4, r5, lr}
 844              		.cfi_remember_state
 845              		.cfi_restore 14
 846              		.cfi_restore 5
 847              		.cfi_restore 4
 848              		.cfi_restore 3
 849              		.cfi_def_cfa_offset 0
 850              	.LVL86:
 577:Generated_Source\PSoC5/CyFlash.c **** }
 851              		.loc 1 577 0
 852 0042 FFF7FEBF 		b	CyExitCriticalSection
 853              	.LVL87:
 854              	.L131:
 855              		.cfi_restore_state
 545:Generated_Source\PSoC5/CyFlash.c ****                                     CY_FLASH_CACHE_WS_1_VALUE_MASK;
 856              		.loc 1 545 0
 857 0046 114A     		ldr	r2, .L135
 577:Generated_Source\PSoC5/CyFlash.c **** }
 858              		.loc 1 577 0
 859 0048 2846     		mov	r0, r5
 545:Generated_Source\PSoC5/CyFlash.c ****                                     CY_FLASH_CACHE_WS_1_VALUE_MASK;
 860              		.loc 1 545 0
 861 004a 1378     		ldrb	r3, [r2]	@ zero_extendqisi2
 862 004c 03F01F03 		and	r3, r3, #31
 863 0050 43F04003 		orr	r3, r3, #64
 864 0054 1370     		strb	r3, [r2]
 865              		.loc 1 578 0
 866 0056 BDE83840 		pop	{r3, r4, r5, lr}
 867              		.cfi_remember_state
 868              		.cfi_restore 3
 869              		.cfi_restore 4
 870              		.cfi_restore 5
 871              		.cfi_restore 14
 872              		.cfi_def_cfa_offset 0
 873              	.LVL88:
ARM GAS  C:\Users\sinow\AppData\Local\Temp\ccraqEQ8.s 			page 28


 577:Generated_Source\PSoC5/CyFlash.c **** }
 874              		.loc 1 577 0
 875 005a FFF7FEBF 		b	CyExitCriticalSection
 876              	.LVL89:
 877              	.L134:
 878              		.cfi_restore_state
 561:Generated_Source\PSoC5/CyFlash.c ****                                     CY_FLASH_CACHE_WS_4_VALUE_MASK;
 879              		.loc 1 561 0
 880 005e 0B4A     		ldr	r2, .L135
 881 0060 1378     		ldrb	r3, [r2]	@ zero_extendqisi2
 882 0062 03F01F03 		and	r3, r3, #31
 883 0066 1370     		strb	r3, [r2]
 884 0068 E8E7     		b	.L125
 885              	.L133:
 555:Generated_Source\PSoC5/CyFlash.c ****                                     CY_FLASH_CACHE_WS_3_VALUE_MASK;
 886              		.loc 1 555 0
 887 006a 084A     		ldr	r2, .L135
 577:Generated_Source\PSoC5/CyFlash.c **** }
 888              		.loc 1 577 0
 889 006c 2846     		mov	r0, r5
 555:Generated_Source\PSoC5/CyFlash.c ****                                     CY_FLASH_CACHE_WS_3_VALUE_MASK;
 890              		.loc 1 555 0
 891 006e 1378     		ldrb	r3, [r2]	@ zero_extendqisi2
 892 0070 03F01F03 		and	r3, r3, #31
 893 0074 43F0C003 		orr	r3, r3, #192
 894 0078 1370     		strb	r3, [r2]
 895              		.loc 1 578 0
 896 007a BDE83840 		pop	{r3, r4, r5, lr}
 897              		.cfi_remember_state
 898              		.cfi_restore 3
 899              		.cfi_restore 4
 900              		.cfi_restore 5
 901              		.cfi_restore 14
 902              		.cfi_def_cfa_offset 0
 903              	.LVL90:
 577:Generated_Source\PSoC5/CyFlash.c **** }
 904              		.loc 1 577 0
 905 007e FFF7FEBF 		b	CyExitCriticalSection
 906              	.LVL91:
 907              	.L129:
 908              		.cfi_restore_state
 573:Generated_Source\PSoC5/CyFlash.c ****     }
 909              		.loc 1 573 0 discriminator 1
 910 0082 0020     		movs	r0, #0
 911 0084 FFF7FEFF 		bl	CyHalt
 912              	.LVL92:
 913 0088 D8E7     		b	.L125
 914              	.L136:
 915 008a 00BF     		.align	2
 916              	.L135:
 917 008c 00480040 		.word	1073760256
 918              		.cfi_endproc
 919              	.LFE8:
 920              		.size	CyFlash_SetWaitCycles, .-CyFlash_SetWaitCycles
 921              		.section	.text.CyEEPROM_Start,"ax",%progbits
 922              		.align	2
 923              		.global	CyEEPROM_Start
ARM GAS  C:\Users\sinow\AppData\Local\Temp\ccraqEQ8.s 			page 29


 924              		.thumb
 925              		.thumb_func
 926              		.type	CyEEPROM_Start, %function
 927              	CyEEPROM_Start:
 928              	.LFB9:
 579:Generated_Source\PSoC5/CyFlash.c **** 
 580:Generated_Source\PSoC5/CyFlash.c **** 
 581:Generated_Source\PSoC5/CyFlash.c **** /*******************************************************************************
 582:Generated_Source\PSoC5/CyFlash.c **** * Function Name: CyEEPROM_Start
 583:Generated_Source\PSoC5/CyFlash.c **** ****************************************************************************//**
 584:Generated_Source\PSoC5/CyFlash.c **** *
 585:Generated_Source\PSoC5/CyFlash.c **** *  Enable the EEPROM.
 586:Generated_Source\PSoC5/CyFlash.c **** *
 587:Generated_Source\PSoC5/CyFlash.c **** *******************************************************************************/
 588:Generated_Source\PSoC5/CyFlash.c **** void CyEEPROM_Start(void) 
 589:Generated_Source\PSoC5/CyFlash.c **** {
 929              		.loc 1 589 0
 930              		.cfi_startproc
 931              		@ args = 0, pretend = 0, frame = 0
 932              		@ frame_needed = 0, uses_anonymous_args = 0
 933 0000 38B5     		push	{r3, r4, r5, lr}
 934              		.cfi_def_cfa_offset 16
 935              		.cfi_offset 3, -16
 936              		.cfi_offset 4, -12
 937              		.cfi_offset 5, -8
 938              		.cfi_offset 14, -4
 590:Generated_Source\PSoC5/CyFlash.c ****     uint8 interruptState;
 591:Generated_Source\PSoC5/CyFlash.c **** 
 592:Generated_Source\PSoC5/CyFlash.c ****     interruptState = CyEnterCriticalSection();
 939              		.loc 1 592 0
 940 0002 FFF7FEFF 		bl	CyEnterCriticalSection
 941              	.LVL93:
 593:Generated_Source\PSoC5/CyFlash.c **** 
 594:Generated_Source\PSoC5/CyFlash.c **** 
 595:Generated_Source\PSoC5/CyFlash.c ****     /***************************************************************************
 596:Generated_Source\PSoC5/CyFlash.c ****     * Enable SPC clock. This also internally enables the 36MHz IMO, since this
 597:Generated_Source\PSoC5/CyFlash.c ****     * is required for the SPC to function.
 598:Generated_Source\PSoC5/CyFlash.c ****     ***************************************************************************/
 599:Generated_Source\PSoC5/CyFlash.c ****     CY_FLASH_PM_ACT_CFG0_REG    |= CY_FLASH_PM_ACT_CFG0_EN_CLK_SPC;
 942              		.loc 1 599 0
 943 0006 0F4A     		ldr	r2, .L142
 600:Generated_Source\PSoC5/CyFlash.c ****     CY_FLASH_PM_ALTACT_CFG0_REG |= CY_FLASH_PM_ALTACT_CFG0_EN_CLK_SPC;
 944              		.loc 1 600 0
 945 0008 0F49     		ldr	r1, .L142+4
 599:Generated_Source\PSoC5/CyFlash.c ****     CY_FLASH_PM_ALTACT_CFG0_REG |= CY_FLASH_PM_ALTACT_CFG0_EN_CLK_SPC;
 946              		.loc 1 599 0
 947 000a 1378     		ldrb	r3, [r2]	@ zero_extendqisi2
 601:Generated_Source\PSoC5/CyFlash.c **** 
 602:Generated_Source\PSoC5/CyFlash.c **** 
 603:Generated_Source\PSoC5/CyFlash.c ****     /***************************************************************************
 604:Generated_Source\PSoC5/CyFlash.c ****     * The wake count defines the number of Bus Clock cycles it takes for the
 605:Generated_Source\PSoC5/CyFlash.c ****     * flash or EEPROM to wake up from a low power mode independent of the chip
 606:Generated_Source\PSoC5/CyFlash.c ****     * power mode. Wake up time for these blocks is 5 us.
 607:Generated_Source\PSoC5/CyFlash.c ****     * The granularity of this register is 2 Bus Clock cycles, so a value of 0x1E
 608:Generated_Source\PSoC5/CyFlash.c ****     * (30d) defines the wake up time as 60 cycles of the Bus Clock.
 609:Generated_Source\PSoC5/CyFlash.c ****     * This register needs to be written with a value dependent on the Bus Clock
 610:Generated_Source\PSoC5/CyFlash.c ****     * frequency so that the duration of the cycles is equal to or greater than
ARM GAS  C:\Users\sinow\AppData\Local\Temp\ccraqEQ8.s 			page 30


 611:Generated_Source\PSoC5/CyFlash.c ****     * the 5 us delay required.
 612:Generated_Source\PSoC5/CyFlash.c ****     ***************************************************************************/
 613:Generated_Source\PSoC5/CyFlash.c ****     CY_FLASH_SPC_FM_EE_WAKE_CNT_REG = CY_FLASH_SPC_FM_EE_WAKE_CNT_80MHZ;
 948              		.loc 1 613 0
 949 000c 0F4C     		ldr	r4, .L142+8
 599:Generated_Source\PSoC5/CyFlash.c ****     CY_FLASH_PM_ALTACT_CFG0_REG |= CY_FLASH_PM_ALTACT_CFG0_EN_CLK_SPC;
 950              		.loc 1 599 0
 951 000e 43F00803 		orr	r3, r3, #8
 952 0012 1370     		strb	r3, [r2]
 600:Generated_Source\PSoC5/CyFlash.c **** 
 953              		.loc 1 600 0
 954 0014 0B78     		ldrb	r3, [r1]	@ zero_extendqisi2
 955              		.loc 1 613 0
 956 0016 C825     		movs	r5, #200
 600:Generated_Source\PSoC5/CyFlash.c **** 
 957              		.loc 1 600 0
 958 0018 43F00803 		orr	r3, r3, #8
 959 001c 0B70     		strb	r3, [r1]
 960              		.loc 1 613 0
 961 001e 2570     		strb	r5, [r4]
 614:Generated_Source\PSoC5/CyFlash.c **** 
 615:Generated_Source\PSoC5/CyFlash.c **** 
 616:Generated_Source\PSoC5/CyFlash.c ****     /***************************************************************************
 617:Generated_Source\PSoC5/CyFlash.c ****     * Enable EEPROM. Re-enabling an EEPROM macro takes 5us. During this time,
 618:Generated_Source\PSoC5/CyFlash.c ****     * the EE will not acknowledge a PHUB request.
 619:Generated_Source\PSoC5/CyFlash.c ****     ***************************************************************************/
 620:Generated_Source\PSoC5/CyFlash.c ****     CY_FLASH_PM_ACT_CFG12_REG    |= CY_FLASH_PM_ACT_CFG12_EN_EE;
 962              		.loc 1 620 0
 963 0020 137B     		ldrb	r3, [r2, #12]	@ zero_extendqisi2
 964 0022 43F01003 		orr	r3, r3, #16
 965 0026 1373     		strb	r3, [r2, #12]
 621:Generated_Source\PSoC5/CyFlash.c ****     CY_FLASH_PM_ALTACT_CFG12_REG |= CY_FLASH_PM_ALTACT_CFG12_EN_EE;
 966              		.loc 1 621 0
 967 0028 0B7B     		ldrb	r3, [r1, #12]	@ zero_extendqisi2
 622:Generated_Source\PSoC5/CyFlash.c **** 
 623:Generated_Source\PSoC5/CyFlash.c ****     while(0u == (CY_FLASH_SPC_FM_EE_CR_REG & CY_FLASH_EE_EE_AWAKE))
 968              		.loc 1 623 0
 969 002a 02F55872 		add	r2, r2, #864
 621:Generated_Source\PSoC5/CyFlash.c ****     CY_FLASH_PM_ALTACT_CFG12_REG |= CY_FLASH_PM_ALTACT_CFG12_EN_EE;
 970              		.loc 1 621 0
 971 002e 43F01003 		orr	r3, r3, #16
 972 0032 0B73     		strb	r3, [r1, #12]
 973              	.L138:
 974              		.loc 1 623 0 discriminator 1
 975 0034 1378     		ldrb	r3, [r2]	@ zero_extendqisi2
 976 0036 9B06     		lsls	r3, r3, #26
 977 0038 FCD5     		bpl	.L138
 624:Generated_Source\PSoC5/CyFlash.c ****     {
 625:Generated_Source\PSoC5/CyFlash.c ****         /* Non-zero status denotes that the EEPROM/Flash is awake & powered. */
 626:Generated_Source\PSoC5/CyFlash.c ****     }
 627:Generated_Source\PSoC5/CyFlash.c **** 
 628:Generated_Source\PSoC5/CyFlash.c ****     CyExitCriticalSection(interruptState);
 629:Generated_Source\PSoC5/CyFlash.c **** }
 978              		.loc 1 629 0
 979 003a BDE83840 		pop	{r3, r4, r5, lr}
 980              		.cfi_restore 14
 981              		.cfi_restore 5
ARM GAS  C:\Users\sinow\AppData\Local\Temp\ccraqEQ8.s 			page 31


 982              		.cfi_restore 4
 983              		.cfi_restore 3
 984              		.cfi_def_cfa_offset 0
 628:Generated_Source\PSoC5/CyFlash.c **** }
 985              		.loc 1 628 0
 986 003e FFF7FEBF 		b	CyExitCriticalSection
 987              	.LVL94:
 988              	.L143:
 989 0042 00BF     		.align	2
 990              	.L142:
 991 0044 A0430040 		.word	1073759136
 992 0048 B0430040 		.word	1073759152
 993 004c 01470040 		.word	1073760001
 994              		.cfi_endproc
 995              	.LFE9:
 996              		.size	CyEEPROM_Start, .-CyEEPROM_Start
 997              		.section	.text.CyEEPROM_Stop,"ax",%progbits
 998              		.align	2
 999              		.global	CyEEPROM_Stop
 1000              		.thumb
 1001              		.thumb_func
 1002              		.type	CyEEPROM_Stop, %function
 1003              	CyEEPROM_Stop:
 1004              	.LFB10:
 630:Generated_Source\PSoC5/CyFlash.c **** 
 631:Generated_Source\PSoC5/CyFlash.c **** 
 632:Generated_Source\PSoC5/CyFlash.c **** /*******************************************************************************
 633:Generated_Source\PSoC5/CyFlash.c **** * Function Name: CyEEPROM_Stop
 634:Generated_Source\PSoC5/CyFlash.c **** ****************************************************************************//**
 635:Generated_Source\PSoC5/CyFlash.c **** *
 636:Generated_Source\PSoC5/CyFlash.c **** *  Disable the EEPROM.
 637:Generated_Source\PSoC5/CyFlash.c **** *
 638:Generated_Source\PSoC5/CyFlash.c **** *******************************************************************************/
 639:Generated_Source\PSoC5/CyFlash.c **** void CyEEPROM_Stop (void) 
 640:Generated_Source\PSoC5/CyFlash.c **** {
 1005              		.loc 1 640 0
 1006              		.cfi_startproc
 1007              		@ args = 0, pretend = 0, frame = 0
 1008              		@ frame_needed = 0, uses_anonymous_args = 0
 1009 0000 08B5     		push	{r3, lr}
 1010              		.cfi_def_cfa_offset 8
 1011              		.cfi_offset 3, -8
 1012              		.cfi_offset 14, -4
 641:Generated_Source\PSoC5/CyFlash.c ****     uint8 interruptState;
 642:Generated_Source\PSoC5/CyFlash.c **** 
 643:Generated_Source\PSoC5/CyFlash.c ****     interruptState = CyEnterCriticalSection();
 1013              		.loc 1 643 0
 1014 0002 FFF7FEFF 		bl	CyEnterCriticalSection
 1015              	.LVL95:
 644:Generated_Source\PSoC5/CyFlash.c **** 
 645:Generated_Source\PSoC5/CyFlash.c ****     CY_FLASH_PM_ACT_CFG12_REG    &= ((uint8)(~CY_FLASH_PM_ACT_CFG12_EN_EE));
 1016              		.loc 1 645 0
 1017 0006 0749     		ldr	r1, .L146
 646:Generated_Source\PSoC5/CyFlash.c ****     CY_FLASH_PM_ALTACT_CFG12_REG &= ((uint8)(~CY_FLASH_PM_ALTACT_CFG12_EN_EE));
 1018              		.loc 1 646 0
 1019 0008 074A     		ldr	r2, .L146+4
 645:Generated_Source\PSoC5/CyFlash.c ****     CY_FLASH_PM_ALTACT_CFG12_REG &= ((uint8)(~CY_FLASH_PM_ALTACT_CFG12_EN_EE));
ARM GAS  C:\Users\sinow\AppData\Local\Temp\ccraqEQ8.s 			page 32


 1020              		.loc 1 645 0
 1021 000a 0B78     		ldrb	r3, [r1]	@ zero_extendqisi2
 1022 000c 03F0EF03 		and	r3, r3, #239
 1023 0010 0B70     		strb	r3, [r1]
 1024              		.loc 1 646 0
 1025 0012 1378     		ldrb	r3, [r2]	@ zero_extendqisi2
 1026 0014 03F0EF03 		and	r3, r3, #239
 1027 0018 1370     		strb	r3, [r2]
 647:Generated_Source\PSoC5/CyFlash.c **** 
 648:Generated_Source\PSoC5/CyFlash.c ****     CyExitCriticalSection(interruptState);
 649:Generated_Source\PSoC5/CyFlash.c **** }
 1028              		.loc 1 649 0
 1029 001a BDE80840 		pop	{r3, lr}
 1030              		.cfi_restore 14
 1031              		.cfi_restore 3
 1032              		.cfi_def_cfa_offset 0
 648:Generated_Source\PSoC5/CyFlash.c **** }
 1033              		.loc 1 648 0
 1034 001e FFF7FEBF 		b	CyExitCriticalSection
 1035              	.LVL96:
 1036              	.L147:
 1037 0022 00BF     		.align	2
 1038              	.L146:
 1039 0024 AC430040 		.word	1073759148
 1040 0028 BC430040 		.word	1073759164
 1041              		.cfi_endproc
 1042              	.LFE10:
 1043              		.size	CyEEPROM_Stop, .-CyEEPROM_Stop
 1044              		.section	.text.CyEEPROM_ReadReserve,"ax",%progbits
 1045              		.align	2
 1046              		.global	CyEEPROM_ReadReserve
 1047              		.thumb
 1048              		.thumb_func
 1049              		.type	CyEEPROM_ReadReserve, %function
 1050              	CyEEPROM_ReadReserve:
 1051              	.LFB11:
 650:Generated_Source\PSoC5/CyFlash.c **** 
 651:Generated_Source\PSoC5/CyFlash.c **** 
 652:Generated_Source\PSoC5/CyFlash.c **** /*******************************************************************************
 653:Generated_Source\PSoC5/CyFlash.c **** * Function Name: CyEEPROM_ReadReserve
 654:Generated_Source\PSoC5/CyFlash.c **** ****************************************************************************//**
 655:Generated_Source\PSoC5/CyFlash.c **** *
 656:Generated_Source\PSoC5/CyFlash.c **** *  Request access to the EEPROM for reading and wait until access is available.
 657:Generated_Source\PSoC5/CyFlash.c **** *
 658:Generated_Source\PSoC5/CyFlash.c **** *******************************************************************************/
 659:Generated_Source\PSoC5/CyFlash.c **** void CyEEPROM_ReadReserve(void) 
 660:Generated_Source\PSoC5/CyFlash.c **** {
 1052              		.loc 1 660 0
 1053              		.cfi_startproc
 1054              		@ args = 0, pretend = 0, frame = 0
 1055              		@ frame_needed = 0, uses_anonymous_args = 0
 1056              		@ link register save eliminated.
 661:Generated_Source\PSoC5/CyFlash.c ****     /* Make request for PHUB to have access */
 662:Generated_Source\PSoC5/CyFlash.c ****     CY_FLASH_EE_SCR_REG |= CY_FLASH_EE_SCR_AHB_EE_REQ;
 1057              		.loc 1 662 0
 1058 0000 044B     		ldr	r3, .L152
 663:Generated_Source\PSoC5/CyFlash.c **** 
ARM GAS  C:\Users\sinow\AppData\Local\Temp\ccraqEQ8.s 			page 33


 664:Generated_Source\PSoC5/CyFlash.c ****     while (0u == (CY_FLASH_EE_SCR_REG & CY_FLASH_EE_SCR_AHB_EE_ACK))
 1059              		.loc 1 664 0
 1060 0002 1A46     		mov	r2, r3
 662:Generated_Source\PSoC5/CyFlash.c **** 
 1061              		.loc 1 662 0
 1062 0004 1978     		ldrb	r1, [r3]	@ zero_extendqisi2
 1063 0006 41F00101 		orr	r1, r1, #1
 1064 000a 1970     		strb	r1, [r3]
 1065              	.L149:
 1066              		.loc 1 664 0 discriminator 1
 1067 000c 1378     		ldrb	r3, [r2]	@ zero_extendqisi2
 1068 000e 9B07     		lsls	r3, r3, #30
 1069 0010 FCD5     		bpl	.L149
 665:Generated_Source\PSoC5/CyFlash.c ****     {
 666:Generated_Source\PSoC5/CyFlash.c ****         /* Wait for acknowledgment from PHUB */
 667:Generated_Source\PSoC5/CyFlash.c ****     }
 668:Generated_Source\PSoC5/CyFlash.c **** }
 1070              		.loc 1 668 0
 1071 0012 7047     		bx	lr
 1072              	.L153:
 1073              		.align	2
 1074              	.L152:
 1075 0014 02470040 		.word	1073760002
 1076              		.cfi_endproc
 1077              	.LFE11:
 1078              		.size	CyEEPROM_ReadReserve, .-CyEEPROM_ReadReserve
 1079              		.section	.text.CyEEPROM_ReadRelease,"ax",%progbits
 1080              		.align	2
 1081              		.global	CyEEPROM_ReadRelease
 1082              		.thumb
 1083              		.thumb_func
 1084              		.type	CyEEPROM_ReadRelease, %function
 1085              	CyEEPROM_ReadRelease:
 1086              	.LFB12:
 669:Generated_Source\PSoC5/CyFlash.c **** 
 670:Generated_Source\PSoC5/CyFlash.c **** 
 671:Generated_Source\PSoC5/CyFlash.c **** /*******************************************************************************
 672:Generated_Source\PSoC5/CyFlash.c **** * Function Name: CyEEPROM_ReadRelease
 673:Generated_Source\PSoC5/CyFlash.c **** ****************************************************************************//**
 674:Generated_Source\PSoC5/CyFlash.c **** *
 675:Generated_Source\PSoC5/CyFlash.c **** *  Release the read reservation of the EEPROM.
 676:Generated_Source\PSoC5/CyFlash.c **** *
 677:Generated_Source\PSoC5/CyFlash.c **** *******************************************************************************/
 678:Generated_Source\PSoC5/CyFlash.c **** void CyEEPROM_ReadRelease(void) 
 679:Generated_Source\PSoC5/CyFlash.c **** {
 1087              		.loc 1 679 0
 1088              		.cfi_startproc
 1089              		@ args = 0, pretend = 0, frame = 0
 1090              		@ frame_needed = 0, uses_anonymous_args = 0
 1091              		@ link register save eliminated.
 680:Generated_Source\PSoC5/CyFlash.c ****     CY_FLASH_EE_SCR_REG &= (uint8)(~CY_FLASH_EE_SCR_AHB_EE_REQ);
 1092              		.loc 1 680 0
 1093 0000 024A     		ldr	r2, .L155
 1094 0002 1378     		ldrb	r3, [r2]	@ zero_extendqisi2
 1095 0004 03F0FE03 		and	r3, r3, #254
 1096 0008 1370     		strb	r3, [r2]
 1097 000a 7047     		bx	lr
ARM GAS  C:\Users\sinow\AppData\Local\Temp\ccraqEQ8.s 			page 34


 1098              	.L156:
 1099              		.align	2
 1100              	.L155:
 1101 000c 02470040 		.word	1073760002
 1102              		.cfi_endproc
 1103              	.LFE12:
 1104              		.size	CyEEPROM_ReadRelease, .-CyEEPROM_ReadRelease
 1105              		.comm	dieTemperature,2,4
 1106              		.text
 1107              	.Letext0:
 1108              		.file 2 "Generated_Source\\PSoC5\\cytypes.h"
 1109              		.file 3 "Generated_Source\\PSoC5\\CyLib.h"
 1110              		.file 4 "Generated_Source\\PSoC5\\CySpc.h"