ARM GAS  C:\Users\pearlstl\AppData\Local\Temp\cckpF4LI.s 			page 1


   1              		.syntax unified
   2              		.cpu cortex-m3
   3              		.fpu softvfp
   4              		.eabi_attribute 20, 1
   5              		.eabi_attribute 21, 1
   6              		.eabi_attribute 23, 3
   7              		.eabi_attribute 24, 1
   8              		.eabi_attribute 25, 1
   9              		.eabi_attribute 26, 1
  10              		.eabi_attribute 30, 2
  11              		.eabi_attribute 34, 1
  12              		.eabi_attribute 18, 4
  13              		.thumb
  14              		.syntax unified
  15              		.file	"isr_1.c"
  16              		.text
  17              	.Ltext0:
  18              		.cfi_sections	.debug_frame
  19              		.section	.text.isr_1_Interrupt,"ax",%progbits
  20              		.align	2
  21              		.global	isr_1_Interrupt
  22              		.thumb
  23              		.thumb_func
  24              		.type	isr_1_Interrupt, %function
  25              	isr_1_Interrupt:
  26              	.LFB66:
  27              		.file 1 "Generated_Source\\PSoC5\\isr_1.c"
   1:Generated_Source\PSoC5/isr_1.c **** /*******************************************************************************
   2:Generated_Source\PSoC5/isr_1.c **** * File Name: isr_1.c  
   3:Generated_Source\PSoC5/isr_1.c **** * Version 1.70
   4:Generated_Source\PSoC5/isr_1.c **** *
   5:Generated_Source\PSoC5/isr_1.c **** *  Description:
   6:Generated_Source\PSoC5/isr_1.c **** *   API for controlling the state of an interrupt.
   7:Generated_Source\PSoC5/isr_1.c **** *
   8:Generated_Source\PSoC5/isr_1.c **** *
   9:Generated_Source\PSoC5/isr_1.c **** *  Note:
  10:Generated_Source\PSoC5/isr_1.c **** *
  11:Generated_Source\PSoC5/isr_1.c **** ********************************************************************************
  12:Generated_Source\PSoC5/isr_1.c **** * Copyright 2008-2015, Cypress Semiconductor Corporation.  All rights reserved.
  13:Generated_Source\PSoC5/isr_1.c **** * You may use this file only in accordance with the license, terms, conditions, 
  14:Generated_Source\PSoC5/isr_1.c **** * disclaimers, and limitations in the end user license agreement accompanying 
  15:Generated_Source\PSoC5/isr_1.c **** * the software package with which this file was provided.
  16:Generated_Source\PSoC5/isr_1.c **** *******************************************************************************/
  17:Generated_Source\PSoC5/isr_1.c **** 
  18:Generated_Source\PSoC5/isr_1.c **** 
  19:Generated_Source\PSoC5/isr_1.c **** #include <cydevice_trm.h>
  20:Generated_Source\PSoC5/isr_1.c **** #include <CyLib.h>
  21:Generated_Source\PSoC5/isr_1.c **** #include <isr_1.h>
  22:Generated_Source\PSoC5/isr_1.c **** #include "cyapicallbacks.h"
  23:Generated_Source\PSoC5/isr_1.c **** 
  24:Generated_Source\PSoC5/isr_1.c **** #if !defined(isr_1__REMOVED) /* Check for removal by optimization */
  25:Generated_Source\PSoC5/isr_1.c **** 
  26:Generated_Source\PSoC5/isr_1.c **** /*******************************************************************************
  27:Generated_Source\PSoC5/isr_1.c **** *  Place your includes, defines and code here 
  28:Generated_Source\PSoC5/isr_1.c **** ********************************************************************************/
  29:Generated_Source\PSoC5/isr_1.c **** /* `#START isr_1_intc` */
  30:Generated_Source\PSoC5/isr_1.c **** #include "project.h"
ARM GAS  C:\Users\pearlstl\AppData\Local\Temp\cckpF4LI.s 			page 2


  31:Generated_Source\PSoC5/isr_1.c **** /* `#END` */
  32:Generated_Source\PSoC5/isr_1.c **** 
  33:Generated_Source\PSoC5/isr_1.c **** #ifndef CYINT_IRQ_BASE
  34:Generated_Source\PSoC5/isr_1.c **** #define CYINT_IRQ_BASE      16
  35:Generated_Source\PSoC5/isr_1.c **** #endif /* CYINT_IRQ_BASE */
  36:Generated_Source\PSoC5/isr_1.c **** #ifndef CYINT_VECT_TABLE
  37:Generated_Source\PSoC5/isr_1.c **** #define CYINT_VECT_TABLE    ((cyisraddress **) CYREG_NVIC_VECT_OFFSET)
  38:Generated_Source\PSoC5/isr_1.c **** #endif /* CYINT_VECT_TABLE */
  39:Generated_Source\PSoC5/isr_1.c **** 
  40:Generated_Source\PSoC5/isr_1.c **** /* Declared in startup, used to set unused interrupts to. */
  41:Generated_Source\PSoC5/isr_1.c **** CY_ISR_PROTO(IntDefaultHandler);
  42:Generated_Source\PSoC5/isr_1.c **** 
  43:Generated_Source\PSoC5/isr_1.c **** 
  44:Generated_Source\PSoC5/isr_1.c **** /*******************************************************************************
  45:Generated_Source\PSoC5/isr_1.c **** * Function Name: isr_1_Start
  46:Generated_Source\PSoC5/isr_1.c **** ********************************************************************************
  47:Generated_Source\PSoC5/isr_1.c **** *
  48:Generated_Source\PSoC5/isr_1.c **** * Summary:
  49:Generated_Source\PSoC5/isr_1.c **** *  Set up the interrupt and enable it. This function disables the interrupt, 
  50:Generated_Source\PSoC5/isr_1.c **** *  sets the default interrupt vector, sets the priority from the value in the
  51:Generated_Source\PSoC5/isr_1.c **** *  Design Wide Resources Interrupt Editor, then enables the interrupt to the 
  52:Generated_Source\PSoC5/isr_1.c **** *  interrupt controller.
  53:Generated_Source\PSoC5/isr_1.c **** *
  54:Generated_Source\PSoC5/isr_1.c **** * Parameters:  
  55:Generated_Source\PSoC5/isr_1.c **** *   None
  56:Generated_Source\PSoC5/isr_1.c **** *
  57:Generated_Source\PSoC5/isr_1.c **** * Return:
  58:Generated_Source\PSoC5/isr_1.c **** *   None
  59:Generated_Source\PSoC5/isr_1.c **** *
  60:Generated_Source\PSoC5/isr_1.c **** *******************************************************************************/
  61:Generated_Source\PSoC5/isr_1.c **** void isr_1_Start(void)
  62:Generated_Source\PSoC5/isr_1.c **** {
  63:Generated_Source\PSoC5/isr_1.c ****     /* For all we know the interrupt is active. */
  64:Generated_Source\PSoC5/isr_1.c ****     isr_1_Disable();
  65:Generated_Source\PSoC5/isr_1.c **** 
  66:Generated_Source\PSoC5/isr_1.c ****     /* Set the ISR to point to the isr_1 Interrupt. */
  67:Generated_Source\PSoC5/isr_1.c ****     isr_1_SetVector(&isr_1_Interrupt);
  68:Generated_Source\PSoC5/isr_1.c **** 
  69:Generated_Source\PSoC5/isr_1.c ****     /* Set the priority. */
  70:Generated_Source\PSoC5/isr_1.c ****     isr_1_SetPriority((uint8)isr_1_INTC_PRIOR_NUMBER);
  71:Generated_Source\PSoC5/isr_1.c **** 
  72:Generated_Source\PSoC5/isr_1.c ****     /* Enable it. */
  73:Generated_Source\PSoC5/isr_1.c ****     isr_1_Enable();
  74:Generated_Source\PSoC5/isr_1.c **** }
  75:Generated_Source\PSoC5/isr_1.c **** 
  76:Generated_Source\PSoC5/isr_1.c **** 
  77:Generated_Source\PSoC5/isr_1.c **** /*******************************************************************************
  78:Generated_Source\PSoC5/isr_1.c **** * Function Name: isr_1_StartEx
  79:Generated_Source\PSoC5/isr_1.c **** ********************************************************************************
  80:Generated_Source\PSoC5/isr_1.c **** *
  81:Generated_Source\PSoC5/isr_1.c **** * Summary:
  82:Generated_Source\PSoC5/isr_1.c **** *  Sets up the interrupt and enables it. This function disables the interrupt,
  83:Generated_Source\PSoC5/isr_1.c **** *  sets the interrupt vector based on the address passed in, sets the priority 
  84:Generated_Source\PSoC5/isr_1.c **** *  from the value in the Design Wide Resources Interrupt Editor, then enables 
  85:Generated_Source\PSoC5/isr_1.c **** *  the interrupt to the interrupt controller.
  86:Generated_Source\PSoC5/isr_1.c **** *  
  87:Generated_Source\PSoC5/isr_1.c **** *  When defining ISR functions, the CY_ISR and CY_ISR_PROTO macros should be 
ARM GAS  C:\Users\pearlstl\AppData\Local\Temp\cckpF4LI.s 			page 3


  88:Generated_Source\PSoC5/isr_1.c **** *  used to provide consistent definition across compilers:
  89:Generated_Source\PSoC5/isr_1.c **** *  
  90:Generated_Source\PSoC5/isr_1.c **** *  Function definition example:
  91:Generated_Source\PSoC5/isr_1.c **** *   CY_ISR(MyISR)
  92:Generated_Source\PSoC5/isr_1.c **** *   {
  93:Generated_Source\PSoC5/isr_1.c **** *   }
  94:Generated_Source\PSoC5/isr_1.c **** *   Function prototype example:
  95:Generated_Source\PSoC5/isr_1.c **** *   CY_ISR_PROTO(MyISR);
  96:Generated_Source\PSoC5/isr_1.c **** *
  97:Generated_Source\PSoC5/isr_1.c **** * Parameters:  
  98:Generated_Source\PSoC5/isr_1.c **** *   address: Address of the ISR to set in the interrupt vector table.
  99:Generated_Source\PSoC5/isr_1.c **** *
 100:Generated_Source\PSoC5/isr_1.c **** * Return:
 101:Generated_Source\PSoC5/isr_1.c **** *   None
 102:Generated_Source\PSoC5/isr_1.c **** *
 103:Generated_Source\PSoC5/isr_1.c **** *******************************************************************************/
 104:Generated_Source\PSoC5/isr_1.c **** void isr_1_StartEx(cyisraddress address)
 105:Generated_Source\PSoC5/isr_1.c **** {
 106:Generated_Source\PSoC5/isr_1.c ****     /* For all we know the interrupt is active. */
 107:Generated_Source\PSoC5/isr_1.c ****     isr_1_Disable();
 108:Generated_Source\PSoC5/isr_1.c **** 
 109:Generated_Source\PSoC5/isr_1.c ****     /* Set the ISR to point to the isr_1 Interrupt. */
 110:Generated_Source\PSoC5/isr_1.c ****     isr_1_SetVector(address);
 111:Generated_Source\PSoC5/isr_1.c **** 
 112:Generated_Source\PSoC5/isr_1.c ****     /* Set the priority. */
 113:Generated_Source\PSoC5/isr_1.c ****     isr_1_SetPriority((uint8)isr_1_INTC_PRIOR_NUMBER);
 114:Generated_Source\PSoC5/isr_1.c **** 
 115:Generated_Source\PSoC5/isr_1.c ****     /* Enable it. */
 116:Generated_Source\PSoC5/isr_1.c ****     isr_1_Enable();
 117:Generated_Source\PSoC5/isr_1.c **** }
 118:Generated_Source\PSoC5/isr_1.c **** 
 119:Generated_Source\PSoC5/isr_1.c **** 
 120:Generated_Source\PSoC5/isr_1.c **** /*******************************************************************************
 121:Generated_Source\PSoC5/isr_1.c **** * Function Name: isr_1_Stop
 122:Generated_Source\PSoC5/isr_1.c **** ********************************************************************************
 123:Generated_Source\PSoC5/isr_1.c **** *
 124:Generated_Source\PSoC5/isr_1.c **** * Summary:
 125:Generated_Source\PSoC5/isr_1.c **** *   Disables and removes the interrupt.
 126:Generated_Source\PSoC5/isr_1.c **** *
 127:Generated_Source\PSoC5/isr_1.c **** * Parameters:  
 128:Generated_Source\PSoC5/isr_1.c **** *   None
 129:Generated_Source\PSoC5/isr_1.c **** *
 130:Generated_Source\PSoC5/isr_1.c **** * Return:
 131:Generated_Source\PSoC5/isr_1.c **** *   None
 132:Generated_Source\PSoC5/isr_1.c **** *
 133:Generated_Source\PSoC5/isr_1.c **** *******************************************************************************/
 134:Generated_Source\PSoC5/isr_1.c **** void isr_1_Stop(void)
 135:Generated_Source\PSoC5/isr_1.c **** {
 136:Generated_Source\PSoC5/isr_1.c ****     /* Disable this interrupt. */
 137:Generated_Source\PSoC5/isr_1.c ****     isr_1_Disable();
 138:Generated_Source\PSoC5/isr_1.c **** 
 139:Generated_Source\PSoC5/isr_1.c ****     /* Set the ISR to point to the passive one. */
 140:Generated_Source\PSoC5/isr_1.c ****     isr_1_SetVector(&IntDefaultHandler);
 141:Generated_Source\PSoC5/isr_1.c **** }
 142:Generated_Source\PSoC5/isr_1.c **** 
 143:Generated_Source\PSoC5/isr_1.c **** 
 144:Generated_Source\PSoC5/isr_1.c **** /*******************************************************************************
ARM GAS  C:\Users\pearlstl\AppData\Local\Temp\cckpF4LI.s 			page 4


 145:Generated_Source\PSoC5/isr_1.c **** * Function Name: isr_1_Interrupt
 146:Generated_Source\PSoC5/isr_1.c **** ********************************************************************************
 147:Generated_Source\PSoC5/isr_1.c **** *
 148:Generated_Source\PSoC5/isr_1.c **** * Summary:
 149:Generated_Source\PSoC5/isr_1.c **** *   The default Interrupt Service Routine for isr_1.
 150:Generated_Source\PSoC5/isr_1.c **** *
 151:Generated_Source\PSoC5/isr_1.c **** *   Add custom code between the coments to keep the next version of this file
 152:Generated_Source\PSoC5/isr_1.c **** *   from over writting your code.
 153:Generated_Source\PSoC5/isr_1.c **** *
 154:Generated_Source\PSoC5/isr_1.c **** * Parameters:  
 155:Generated_Source\PSoC5/isr_1.c **** *
 156:Generated_Source\PSoC5/isr_1.c **** * Return:
 157:Generated_Source\PSoC5/isr_1.c **** *   None
 158:Generated_Source\PSoC5/isr_1.c **** *
 159:Generated_Source\PSoC5/isr_1.c **** *******************************************************************************/
 160:Generated_Source\PSoC5/isr_1.c **** CY_ISR(isr_1_Interrupt)
 161:Generated_Source\PSoC5/isr_1.c **** {
  28              		.loc 1 161 0
  29              		.cfi_startproc
  30              		@ args = 0, pretend = 0, frame = 0
  31              		@ frame_needed = 0, uses_anonymous_args = 0
  32 0000 08B5     		push	{r3, lr}
  33              		.cfi_def_cfa_offset 8
  34              		.cfi_offset 3, -8
  35              		.cfi_offset 14, -4
 162:Generated_Source\PSoC5/isr_1.c ****     #ifdef isr_1_INTERRUPT_INTERRUPT_CALLBACK
 163:Generated_Source\PSoC5/isr_1.c ****         isr_1_Interrupt_InterruptCallback();
 164:Generated_Source\PSoC5/isr_1.c ****     #endif /* isr_1_INTERRUPT_INTERRUPT_CALLBACK */ 
 165:Generated_Source\PSoC5/isr_1.c **** 
 166:Generated_Source\PSoC5/isr_1.c ****     /*  Place your Interrupt code here. */
 167:Generated_Source\PSoC5/isr_1.c ****     /* `#START isr_1_Interrupt` */
 168:Generated_Source\PSoC5/isr_1.c ****     EVENT_OUT_Write(EVENT_IN_Read());
  36              		.loc 1 168 0
  37 0002 FFF7FEFF 		bl	EVENT_IN_Read
  38              	.LVL0:
  39 0006 FFF7FEFF 		bl	EVENT_OUT_Write
  40              	.LVL1:
 169:Generated_Source\PSoC5/isr_1.c ****     
 170:Generated_Source\PSoC5/isr_1.c ****     EVENT_IN_ClearInterrupt();
 171:Generated_Source\PSoC5/isr_1.c ****     /* `#END` */
 172:Generated_Source\PSoC5/isr_1.c **** }
  41              		.loc 1 172 0
  42 000a BDE80840 		pop	{r3, lr}
  43              		.cfi_restore 14
  44              		.cfi_restore 3
  45              		.cfi_def_cfa_offset 0
 170:Generated_Source\PSoC5/isr_1.c ****     /* `#END` */
  46              		.loc 1 170 0
  47 000e FFF7FEBF 		b	EVENT_IN_ClearInterrupt
  48              	.LVL2:
  49              		.cfi_endproc
  50              	.LFE66:
  51              		.size	isr_1_Interrupt, .-isr_1_Interrupt
  52 0012 00BF     		.section	.text.isr_1_Start,"ax",%progbits
  53              		.align	2
  54              		.global	isr_1_Start
  55              		.thumb
ARM GAS  C:\Users\pearlstl\AppData\Local\Temp\cckpF4LI.s 			page 5


  56              		.thumb_func
  57              		.type	isr_1_Start, %function
  58              	isr_1_Start:
  59              	.LFB63:
  62:Generated_Source\PSoC5/isr_1.c ****     /* For all we know the interrupt is active. */
  60              		.loc 1 62 0
  61              		.cfi_startproc
  62              		@ args = 0, pretend = 0, frame = 0
  63              		@ frame_needed = 0, uses_anonymous_args = 0
  64              		@ link register save eliminated.
  65 0000 70B4     		push	{r4, r5, r6}
  66              		.cfi_def_cfa_offset 12
  67              		.cfi_offset 4, -12
  68              		.cfi_offset 5, -8
  69              		.cfi_offset 6, -4
  70              	.LBB22:
  71              	.LBB23:
 173:Generated_Source\PSoC5/isr_1.c **** 
 174:Generated_Source\PSoC5/isr_1.c **** 
 175:Generated_Source\PSoC5/isr_1.c **** /*******************************************************************************
 176:Generated_Source\PSoC5/isr_1.c **** * Function Name: isr_1_SetVector
 177:Generated_Source\PSoC5/isr_1.c **** ********************************************************************************
 178:Generated_Source\PSoC5/isr_1.c **** *
 179:Generated_Source\PSoC5/isr_1.c **** * Summary:
 180:Generated_Source\PSoC5/isr_1.c **** *   Change the ISR vector for the Interrupt. Note calling isr_1_Start
 181:Generated_Source\PSoC5/isr_1.c **** *   will override any effect this method would have had. To set the vector 
 182:Generated_Source\PSoC5/isr_1.c **** *   before the component has been started use isr_1_StartEx instead.
 183:Generated_Source\PSoC5/isr_1.c **** * 
 184:Generated_Source\PSoC5/isr_1.c **** *   When defining ISR functions, the CY_ISR and CY_ISR_PROTO macros should be 
 185:Generated_Source\PSoC5/isr_1.c **** *   used to provide consistent definition across compilers:
 186:Generated_Source\PSoC5/isr_1.c **** *
 187:Generated_Source\PSoC5/isr_1.c **** *   Function definition example:
 188:Generated_Source\PSoC5/isr_1.c **** *   CY_ISR(MyISR)
 189:Generated_Source\PSoC5/isr_1.c **** *   {
 190:Generated_Source\PSoC5/isr_1.c **** *   }
 191:Generated_Source\PSoC5/isr_1.c **** *
 192:Generated_Source\PSoC5/isr_1.c **** *   Function prototype example:
 193:Generated_Source\PSoC5/isr_1.c **** *     CY_ISR_PROTO(MyISR);
 194:Generated_Source\PSoC5/isr_1.c **** *
 195:Generated_Source\PSoC5/isr_1.c **** * Parameters:
 196:Generated_Source\PSoC5/isr_1.c **** *   address: Address of the ISR to set in the interrupt vector table.
 197:Generated_Source\PSoC5/isr_1.c **** *
 198:Generated_Source\PSoC5/isr_1.c **** * Return:
 199:Generated_Source\PSoC5/isr_1.c **** *   None
 200:Generated_Source\PSoC5/isr_1.c **** *
 201:Generated_Source\PSoC5/isr_1.c **** *******************************************************************************/
 202:Generated_Source\PSoC5/isr_1.c **** void isr_1_SetVector(cyisraddress address)
 203:Generated_Source\PSoC5/isr_1.c **** {
 204:Generated_Source\PSoC5/isr_1.c ****     cyisraddress * ramVectorTable;
 205:Generated_Source\PSoC5/isr_1.c **** 
 206:Generated_Source\PSoC5/isr_1.c ****     ramVectorTable = (cyisraddress *) *CYINT_VECT_TABLE;
  72              		.loc 1 206 0
  73 0002 074B     		ldr	r3, .L5
  74              	.LBE23:
  75              	.LBE22:
  76              	.LBB26:
  77              	.LBB27:
ARM GAS  C:\Users\pearlstl\AppData\Local\Temp\cckpF4LI.s 			page 6


 207:Generated_Source\PSoC5/isr_1.c **** 
 208:Generated_Source\PSoC5/isr_1.c ****     ramVectorTable[CYINT_IRQ_BASE + (uint32)isr_1__INTC_NUMBER] = address;
 209:Generated_Source\PSoC5/isr_1.c **** }
 210:Generated_Source\PSoC5/isr_1.c **** 
 211:Generated_Source\PSoC5/isr_1.c **** 
 212:Generated_Source\PSoC5/isr_1.c **** /*******************************************************************************
 213:Generated_Source\PSoC5/isr_1.c **** * Function Name: isr_1_GetVector
 214:Generated_Source\PSoC5/isr_1.c **** ********************************************************************************
 215:Generated_Source\PSoC5/isr_1.c **** *
 216:Generated_Source\PSoC5/isr_1.c **** * Summary:
 217:Generated_Source\PSoC5/isr_1.c **** *   Gets the "address" of the current ISR vector for the Interrupt.
 218:Generated_Source\PSoC5/isr_1.c **** *
 219:Generated_Source\PSoC5/isr_1.c **** * Parameters:
 220:Generated_Source\PSoC5/isr_1.c **** *   None
 221:Generated_Source\PSoC5/isr_1.c **** *
 222:Generated_Source\PSoC5/isr_1.c **** * Return:
 223:Generated_Source\PSoC5/isr_1.c **** *   Address of the ISR in the interrupt vector table.
 224:Generated_Source\PSoC5/isr_1.c **** *
 225:Generated_Source\PSoC5/isr_1.c **** *******************************************************************************/
 226:Generated_Source\PSoC5/isr_1.c **** cyisraddress isr_1_GetVector(void)
 227:Generated_Source\PSoC5/isr_1.c **** {
 228:Generated_Source\PSoC5/isr_1.c ****     cyisraddress * ramVectorTable;
 229:Generated_Source\PSoC5/isr_1.c **** 
 230:Generated_Source\PSoC5/isr_1.c ****     ramVectorTable = (cyisraddress *) *CYINT_VECT_TABLE;
 231:Generated_Source\PSoC5/isr_1.c **** 
 232:Generated_Source\PSoC5/isr_1.c ****     return ramVectorTable[CYINT_IRQ_BASE + (uint32)isr_1__INTC_NUMBER];
 233:Generated_Source\PSoC5/isr_1.c **** }
 234:Generated_Source\PSoC5/isr_1.c **** 
 235:Generated_Source\PSoC5/isr_1.c **** 
 236:Generated_Source\PSoC5/isr_1.c **** /*******************************************************************************
 237:Generated_Source\PSoC5/isr_1.c **** * Function Name: isr_1_SetPriority
 238:Generated_Source\PSoC5/isr_1.c **** ********************************************************************************
 239:Generated_Source\PSoC5/isr_1.c **** *
 240:Generated_Source\PSoC5/isr_1.c **** * Summary:
 241:Generated_Source\PSoC5/isr_1.c **** *   Sets the Priority of the Interrupt. 
 242:Generated_Source\PSoC5/isr_1.c **** *
 243:Generated_Source\PSoC5/isr_1.c **** *   Note calling isr_1_Start or isr_1_StartEx will 
 244:Generated_Source\PSoC5/isr_1.c **** *   override any effect this API would have had. This API should only be called
 245:Generated_Source\PSoC5/isr_1.c **** *   after isr_1_Start or isr_1_StartEx has been called. 
 246:Generated_Source\PSoC5/isr_1.c **** *   To set the initial priority for the component, use the Design-Wide Resources
 247:Generated_Source\PSoC5/isr_1.c **** *   Interrupt Editor.
 248:Generated_Source\PSoC5/isr_1.c **** *
 249:Generated_Source\PSoC5/isr_1.c **** *   Note This API has no effect on Non-maskable interrupt NMI).
 250:Generated_Source\PSoC5/isr_1.c **** *
 251:Generated_Source\PSoC5/isr_1.c **** * Parameters:
 252:Generated_Source\PSoC5/isr_1.c **** *   priority: Priority of the interrupt, 0 being the highest priority
 253:Generated_Source\PSoC5/isr_1.c **** *             PSoC 3 and PSoC 5LP: Priority is from 0 to 7.
 254:Generated_Source\PSoC5/isr_1.c **** *             PSoC 4: Priority is from 0 to 3.
 255:Generated_Source\PSoC5/isr_1.c **** *
 256:Generated_Source\PSoC5/isr_1.c **** * Return:
 257:Generated_Source\PSoC5/isr_1.c **** *   None
 258:Generated_Source\PSoC5/isr_1.c **** *
 259:Generated_Source\PSoC5/isr_1.c **** *******************************************************************************/
 260:Generated_Source\PSoC5/isr_1.c **** void isr_1_SetPriority(uint8 priority)
 261:Generated_Source\PSoC5/isr_1.c **** {
 262:Generated_Source\PSoC5/isr_1.c ****     *isr_1_INTC_PRIOR = priority << 5;
 263:Generated_Source\PSoC5/isr_1.c **** }
ARM GAS  C:\Users\pearlstl\AppData\Local\Temp\cckpF4LI.s 			page 7


 264:Generated_Source\PSoC5/isr_1.c **** 
 265:Generated_Source\PSoC5/isr_1.c **** 
 266:Generated_Source\PSoC5/isr_1.c **** /*******************************************************************************
 267:Generated_Source\PSoC5/isr_1.c **** * Function Name: isr_1_GetPriority
 268:Generated_Source\PSoC5/isr_1.c **** ********************************************************************************
 269:Generated_Source\PSoC5/isr_1.c **** *
 270:Generated_Source\PSoC5/isr_1.c **** * Summary:
 271:Generated_Source\PSoC5/isr_1.c **** *   Gets the Priority of the Interrupt.
 272:Generated_Source\PSoC5/isr_1.c **** *
 273:Generated_Source\PSoC5/isr_1.c **** * Parameters:
 274:Generated_Source\PSoC5/isr_1.c **** *   None
 275:Generated_Source\PSoC5/isr_1.c **** *
 276:Generated_Source\PSoC5/isr_1.c **** * Return:
 277:Generated_Source\PSoC5/isr_1.c **** *   Priority of the interrupt, 0 being the highest priority
 278:Generated_Source\PSoC5/isr_1.c **** *    PSoC 3 and PSoC 5LP: Priority is from 0 to 7.
 279:Generated_Source\PSoC5/isr_1.c **** *    PSoC 4: Priority is from 0 to 3.
 280:Generated_Source\PSoC5/isr_1.c **** *
 281:Generated_Source\PSoC5/isr_1.c **** *******************************************************************************/
 282:Generated_Source\PSoC5/isr_1.c **** uint8 isr_1_GetPriority(void)
 283:Generated_Source\PSoC5/isr_1.c **** {
 284:Generated_Source\PSoC5/isr_1.c ****     uint8 priority;
 285:Generated_Source\PSoC5/isr_1.c **** 
 286:Generated_Source\PSoC5/isr_1.c **** 
 287:Generated_Source\PSoC5/isr_1.c ****     priority = *isr_1_INTC_PRIOR >> 5;
 288:Generated_Source\PSoC5/isr_1.c **** 
 289:Generated_Source\PSoC5/isr_1.c ****     return priority;
 290:Generated_Source\PSoC5/isr_1.c **** }
 291:Generated_Source\PSoC5/isr_1.c **** 
 292:Generated_Source\PSoC5/isr_1.c **** 
 293:Generated_Source\PSoC5/isr_1.c **** /*******************************************************************************
 294:Generated_Source\PSoC5/isr_1.c **** * Function Name: isr_1_Enable
 295:Generated_Source\PSoC5/isr_1.c **** ********************************************************************************
 296:Generated_Source\PSoC5/isr_1.c **** *
 297:Generated_Source\PSoC5/isr_1.c **** * Summary:
 298:Generated_Source\PSoC5/isr_1.c **** *   Enables the interrupt to the interrupt controller. Do not call this function
 299:Generated_Source\PSoC5/isr_1.c **** *   unless ISR_Start() has been called or the functionality of the ISR_Start() 
 300:Generated_Source\PSoC5/isr_1.c **** *   function, which sets the vector and the priority, has been called.
 301:Generated_Source\PSoC5/isr_1.c **** *
 302:Generated_Source\PSoC5/isr_1.c **** * Parameters:
 303:Generated_Source\PSoC5/isr_1.c **** *   None
 304:Generated_Source\PSoC5/isr_1.c **** *
 305:Generated_Source\PSoC5/isr_1.c **** * Return:
 306:Generated_Source\PSoC5/isr_1.c **** *   None
 307:Generated_Source\PSoC5/isr_1.c **** *
 308:Generated_Source\PSoC5/isr_1.c **** *******************************************************************************/
 309:Generated_Source\PSoC5/isr_1.c **** void isr_1_Enable(void)
 310:Generated_Source\PSoC5/isr_1.c **** {
 311:Generated_Source\PSoC5/isr_1.c ****     /* Enable the general interrupt. */
 312:Generated_Source\PSoC5/isr_1.c ****     *isr_1_INTC_SET_EN = isr_1__INTC_MASK;
 313:Generated_Source\PSoC5/isr_1.c **** }
 314:Generated_Source\PSoC5/isr_1.c **** 
 315:Generated_Source\PSoC5/isr_1.c **** 
 316:Generated_Source\PSoC5/isr_1.c **** /*******************************************************************************
 317:Generated_Source\PSoC5/isr_1.c **** * Function Name: isr_1_GetState
 318:Generated_Source\PSoC5/isr_1.c **** ********************************************************************************
 319:Generated_Source\PSoC5/isr_1.c **** *
 320:Generated_Source\PSoC5/isr_1.c **** * Summary:
ARM GAS  C:\Users\pearlstl\AppData\Local\Temp\cckpF4LI.s 			page 8


 321:Generated_Source\PSoC5/isr_1.c **** *   Gets the state (enabled, disabled) of the Interrupt.
 322:Generated_Source\PSoC5/isr_1.c **** *
 323:Generated_Source\PSoC5/isr_1.c **** * Parameters:
 324:Generated_Source\PSoC5/isr_1.c **** *   None
 325:Generated_Source\PSoC5/isr_1.c **** *
 326:Generated_Source\PSoC5/isr_1.c **** * Return:
 327:Generated_Source\PSoC5/isr_1.c **** *   1 if enabled, 0 if disabled.
 328:Generated_Source\PSoC5/isr_1.c **** *
 329:Generated_Source\PSoC5/isr_1.c **** *******************************************************************************/
 330:Generated_Source\PSoC5/isr_1.c **** uint8 isr_1_GetState(void)
 331:Generated_Source\PSoC5/isr_1.c **** {
 332:Generated_Source\PSoC5/isr_1.c ****     /* Get the state of the general interrupt. */
 333:Generated_Source\PSoC5/isr_1.c ****     return ((*isr_1_INTC_SET_EN & (uint32)isr_1__INTC_MASK) != 0u) ? 1u:0u;
 334:Generated_Source\PSoC5/isr_1.c **** }
 335:Generated_Source\PSoC5/isr_1.c **** 
 336:Generated_Source\PSoC5/isr_1.c **** 
 337:Generated_Source\PSoC5/isr_1.c **** /*******************************************************************************
 338:Generated_Source\PSoC5/isr_1.c **** * Function Name: isr_1_Disable
 339:Generated_Source\PSoC5/isr_1.c **** ********************************************************************************
 340:Generated_Source\PSoC5/isr_1.c **** *
 341:Generated_Source\PSoC5/isr_1.c **** * Summary:
 342:Generated_Source\PSoC5/isr_1.c **** *   Disables the Interrupt in the interrupt controller.
 343:Generated_Source\PSoC5/isr_1.c **** *
 344:Generated_Source\PSoC5/isr_1.c **** * Parameters:
 345:Generated_Source\PSoC5/isr_1.c **** *   None
 346:Generated_Source\PSoC5/isr_1.c **** *
 347:Generated_Source\PSoC5/isr_1.c **** * Return:
 348:Generated_Source\PSoC5/isr_1.c **** *   None
 349:Generated_Source\PSoC5/isr_1.c **** *
 350:Generated_Source\PSoC5/isr_1.c **** *******************************************************************************/
 351:Generated_Source\PSoC5/isr_1.c **** void isr_1_Disable(void)
 352:Generated_Source\PSoC5/isr_1.c **** {
 353:Generated_Source\PSoC5/isr_1.c ****     /* Disable the general interrupt. */
 354:Generated_Source\PSoC5/isr_1.c ****     *isr_1_INTC_CLR_EN = isr_1__INTC_MASK;
  78              		.loc 1 354 0
  79 0004 074E     		ldr	r6, .L5+4
  80              	.LBE27:
  81              	.LBE26:
  82              	.LBB30:
  83              	.LBB24:
 206:Generated_Source\PSoC5/isr_1.c **** 
  84              		.loc 1 206 0
  85 0006 1C68     		ldr	r4, [r3]
 208:Generated_Source\PSoC5/isr_1.c **** }
  86              		.loc 1 208 0
  87 0008 074D     		ldr	r5, .L5+8
  88              	.LBE24:
  89              	.LBE30:
  90              	.LBB31:
  91              	.LBB32:
 262:Generated_Source\PSoC5/isr_1.c **** }
  92              		.loc 1 262 0
  93 000a 0849     		ldr	r1, .L5+12
  94              	.LBE32:
  95              	.LBE31:
  96              	.LBB35:
  97              	.LBB28:
ARM GAS  C:\Users\pearlstl\AppData\Local\Temp\cckpF4LI.s 			page 9


  98              		.loc 1 354 0
  99 000c 1023     		movs	r3, #16
 100              	.LBE28:
 101              	.LBE35:
 102              	.LBB36:
 103              	.LBB37:
 312:Generated_Source\PSoC5/isr_1.c **** }
 104              		.loc 1 312 0
 105 000e 084A     		ldr	r2, .L5+16
 106              	.LBE37:
 107              	.LBE36:
 108              	.LBB39:
 109              	.LBB33:
 262:Generated_Source\PSoC5/isr_1.c **** }
 110              		.loc 1 262 0
 111 0010 C020     		movs	r0, #192
 112              	.LBE33:
 113              	.LBE39:
 114              	.LBB40:
 115              	.LBB29:
 116              		.loc 1 354 0
 117 0012 3360     		str	r3, [r6]
 118              	.LVL3:
 119              	.LBE29:
 120              	.LBE40:
 121              	.LBB41:
 122              	.LBB25:
 208:Generated_Source\PSoC5/isr_1.c **** }
 123              		.loc 1 208 0
 124 0014 2565     		str	r5, [r4, #80]
 125              	.LVL4:
 126              	.LBE25:
 127              	.LBE41:
 128              	.LBB42:
 129              	.LBB34:
 262:Generated_Source\PSoC5/isr_1.c **** }
 130              		.loc 1 262 0
 131 0016 0870     		strb	r0, [r1]
 132              	.LVL5:
 133              	.LBE34:
 134              	.LBE42:
  74:Generated_Source\PSoC5/isr_1.c **** 
 135              		.loc 1 74 0
 136 0018 70BC     		pop	{r4, r5, r6}
 137              		.cfi_restore 6
 138              		.cfi_restore 5
 139              		.cfi_restore 4
 140              		.cfi_def_cfa_offset 0
 141              	.LBB43:
 142              	.LBB38:
 312:Generated_Source\PSoC5/isr_1.c **** }
 143              		.loc 1 312 0
 144 001a 1360     		str	r3, [r2]
 145              	.LBE38:
 146              	.LBE43:
  74:Generated_Source\PSoC5/isr_1.c **** 
 147              		.loc 1 74 0
ARM GAS  C:\Users\pearlstl\AppData\Local\Temp\cckpF4LI.s 			page 10


 148 001c 7047     		bx	lr
 149              	.L6:
 150 001e 00BF     		.align	2
 151              	.L5:
 152 0020 08ED00E0 		.word	-536810232
 153 0024 80E100E0 		.word	-536813184
 154 0028 00000000 		.word	isr_1_Interrupt
 155 002c 04E400E0 		.word	-536812540
 156 0030 00E100E0 		.word	-536813312
 157              		.cfi_endproc
 158              	.LFE63:
 159              		.size	isr_1_Start, .-isr_1_Start
 160              		.section	.text.isr_1_StartEx,"ax",%progbits
 161              		.align	2
 162              		.global	isr_1_StartEx
 163              		.thumb
 164              		.thumb_func
 165              		.type	isr_1_StartEx, %function
 166              	isr_1_StartEx:
 167              	.LFB64:
 105:Generated_Source\PSoC5/isr_1.c ****     /* For all we know the interrupt is active. */
 168              		.loc 1 105 0
 169              		.cfi_startproc
 170              		@ args = 0, pretend = 0, frame = 0
 171              		@ frame_needed = 0, uses_anonymous_args = 0
 172              		@ link register save eliminated.
 173              	.LVL6:
 174 0000 70B4     		push	{r4, r5, r6}
 175              		.cfi_def_cfa_offset 12
 176              		.cfi_offset 4, -12
 177              		.cfi_offset 5, -8
 178              		.cfi_offset 6, -4
 179              	.LBB44:
 180              	.LBB45:
 206:Generated_Source\PSoC5/isr_1.c **** 
 181              		.loc 1 206 0
 182 0002 064B     		ldr	r3, .L9
 183              	.LBE45:
 184              	.LBE44:
 185              	.LBB48:
 186              	.LBB49:
 187              		.loc 1 354 0
 188 0004 064E     		ldr	r6, .L9+4
 189              	.LBE49:
 190              	.LBE48:
 191              	.LBB52:
 192              	.LBB46:
 206:Generated_Source\PSoC5/isr_1.c **** 
 193              		.loc 1 206 0
 194 0006 1D68     		ldr	r5, [r3]
 195              	.LBE46:
 196              	.LBE52:
 197              	.LBB53:
 198              	.LBB54:
 262:Generated_Source\PSoC5/isr_1.c **** }
 199              		.loc 1 262 0
 200 0008 0649     		ldr	r1, .L9+8
ARM GAS  C:\Users\pearlstl\AppData\Local\Temp\cckpF4LI.s 			page 11


 201              	.LBE54:
 202              	.LBE53:
 203              	.LBB57:
 204              	.LBB50:
 205              		.loc 1 354 0
 206 000a 1023     		movs	r3, #16
 207              	.LBE50:
 208              	.LBE57:
 209              	.LBB58:
 210              	.LBB55:
 262:Generated_Source\PSoC5/isr_1.c **** }
 211              		.loc 1 262 0
 212 000c C024     		movs	r4, #192
 213              	.LBE55:
 214              	.LBE58:
 215              	.LBB59:
 216              	.LBB60:
 312:Generated_Source\PSoC5/isr_1.c **** }
 217              		.loc 1 312 0
 218 000e 064A     		ldr	r2, .L9+12
 219              	.LBE60:
 220              	.LBE59:
 221              	.LBB62:
 222              	.LBB51:
 223              		.loc 1 354 0
 224 0010 3360     		str	r3, [r6]
 225              	.LVL7:
 226              	.LBE51:
 227              	.LBE62:
 228              	.LBB63:
 229              	.LBB47:
 208:Generated_Source\PSoC5/isr_1.c **** }
 230              		.loc 1 208 0
 231 0012 2865     		str	r0, [r5, #80]
 232              	.LVL8:
 233              	.LBE47:
 234              	.LBE63:
 235              	.LBB64:
 236              	.LBB56:
 262:Generated_Source\PSoC5/isr_1.c **** }
 237              		.loc 1 262 0
 238 0014 0C70     		strb	r4, [r1]
 239              	.LVL9:
 240              	.LBE56:
 241              	.LBE64:
 117:Generated_Source\PSoC5/isr_1.c **** 
 242              		.loc 1 117 0
 243 0016 70BC     		pop	{r4, r5, r6}
 244              		.cfi_restore 6
 245              		.cfi_restore 5
 246              		.cfi_restore 4
 247              		.cfi_def_cfa_offset 0
 248              	.LBB65:
 249              	.LBB61:
 312:Generated_Source\PSoC5/isr_1.c **** }
 250              		.loc 1 312 0
 251 0018 1360     		str	r3, [r2]
ARM GAS  C:\Users\pearlstl\AppData\Local\Temp\cckpF4LI.s 			page 12


 252              	.LBE61:
 253              	.LBE65:
 117:Generated_Source\PSoC5/isr_1.c **** 
 254              		.loc 1 117 0
 255 001a 7047     		bx	lr
 256              	.L10:
 257              		.align	2
 258              	.L9:
 259 001c 08ED00E0 		.word	-536810232
 260 0020 80E100E0 		.word	-536813184
 261 0024 04E400E0 		.word	-536812540
 262 0028 00E100E0 		.word	-536813312
 263              		.cfi_endproc
 264              	.LFE64:
 265              		.size	isr_1_StartEx, .-isr_1_StartEx
 266              		.section	.text.isr_1_Stop,"ax",%progbits
 267              		.align	2
 268              		.global	isr_1_Stop
 269              		.thumb
 270              		.thumb_func
 271              		.type	isr_1_Stop, %function
 272              	isr_1_Stop:
 273              	.LFB65:
 135:Generated_Source\PSoC5/isr_1.c ****     /* Disable this interrupt. */
 274              		.loc 1 135 0
 275              		.cfi_startproc
 276              		@ args = 0, pretend = 0, frame = 0
 277              		@ frame_needed = 0, uses_anonymous_args = 0
 278              		@ link register save eliminated.
 279              	.LBB66:
 280              	.LBB67:
 206:Generated_Source\PSoC5/isr_1.c **** 
 281              		.loc 1 206 0
 282 0000 034B     		ldr	r3, .L12
 283              	.LBE67:
 284              	.LBE66:
 285              	.LBB70:
 286              	.LBB71:
 287              		.loc 1 354 0
 288 0002 0449     		ldr	r1, .L12+4
 289              	.LBE71:
 290              	.LBE70:
 291              	.LBB73:
 292              	.LBB68:
 206:Generated_Source\PSoC5/isr_1.c **** 
 293              		.loc 1 206 0
 294 0004 1B68     		ldr	r3, [r3]
 208:Generated_Source\PSoC5/isr_1.c **** }
 295              		.loc 1 208 0
 296 0006 044A     		ldr	r2, .L12+8
 297              	.LBE68:
 298              	.LBE73:
 299              	.LBB74:
 300              	.LBB72:
 301              		.loc 1 354 0
 302 0008 1020     		movs	r0, #16
 303 000a 0860     		str	r0, [r1]
ARM GAS  C:\Users\pearlstl\AppData\Local\Temp\cckpF4LI.s 			page 13


 304              	.LVL10:
 305              	.LBE72:
 306              	.LBE74:
 307              	.LBB75:
 308              	.LBB69:
 208:Generated_Source\PSoC5/isr_1.c **** }
 309              		.loc 1 208 0
 310 000c 1A65     		str	r2, [r3, #80]
 311              	.LVL11:
 312 000e 7047     		bx	lr
 313              	.L13:
 314              		.align	2
 315              	.L12:
 316 0010 08ED00E0 		.word	-536810232
 317 0014 80E100E0 		.word	-536813184
 318 0018 00000000 		.word	IntDefaultHandler
 319              	.LBE69:
 320              	.LBE75:
 321              		.cfi_endproc
 322              	.LFE65:
 323              		.size	isr_1_Stop, .-isr_1_Stop
 324              		.section	.text.isr_1_SetVector,"ax",%progbits
 325              		.align	2
 326              		.global	isr_1_SetVector
 327              		.thumb
 328              		.thumb_func
 329              		.type	isr_1_SetVector, %function
 330              	isr_1_SetVector:
 331              	.LFB67:
 203:Generated_Source\PSoC5/isr_1.c ****     cyisraddress * ramVectorTable;
 332              		.loc 1 203 0
 333              		.cfi_startproc
 334              		@ args = 0, pretend = 0, frame = 0
 335              		@ frame_needed = 0, uses_anonymous_args = 0
 336              		@ link register save eliminated.
 337              	.LVL12:
 206:Generated_Source\PSoC5/isr_1.c **** 
 338              		.loc 1 206 0
 339 0000 014B     		ldr	r3, .L15
 340 0002 1B68     		ldr	r3, [r3]
 341              	.LVL13:
 208:Generated_Source\PSoC5/isr_1.c **** }
 342              		.loc 1 208 0
 343 0004 1865     		str	r0, [r3, #80]
 344 0006 7047     		bx	lr
 345              	.L16:
 346              		.align	2
 347              	.L15:
 348 0008 08ED00E0 		.word	-536810232
 349              		.cfi_endproc
 350              	.LFE67:
 351              		.size	isr_1_SetVector, .-isr_1_SetVector
 352              		.section	.text.isr_1_GetVector,"ax",%progbits
 353              		.align	2
 354              		.global	isr_1_GetVector
 355              		.thumb
 356              		.thumb_func
ARM GAS  C:\Users\pearlstl\AppData\Local\Temp\cckpF4LI.s 			page 14


 357              		.type	isr_1_GetVector, %function
 358              	isr_1_GetVector:
 359              	.LFB68:
 227:Generated_Source\PSoC5/isr_1.c ****     cyisraddress * ramVectorTable;
 360              		.loc 1 227 0
 361              		.cfi_startproc
 362              		@ args = 0, pretend = 0, frame = 0
 363              		@ frame_needed = 0, uses_anonymous_args = 0
 364              		@ link register save eliminated.
 365              	.LVL14:
 230:Generated_Source\PSoC5/isr_1.c **** 
 366              		.loc 1 230 0
 367 0000 014B     		ldr	r3, .L18
 368              	.LVL15:
 232:Generated_Source\PSoC5/isr_1.c **** }
 369              		.loc 1 232 0
 370 0002 1B68     		ldr	r3, [r3]
 371              	.LVL16:
 233:Generated_Source\PSoC5/isr_1.c **** 
 372              		.loc 1 233 0
 373 0004 186D     		ldr	r0, [r3, #80]
 374 0006 7047     		bx	lr
 375              	.L19:
 376              		.align	2
 377              	.L18:
 378 0008 08ED00E0 		.word	-536810232
 379              		.cfi_endproc
 380              	.LFE68:
 381              		.size	isr_1_GetVector, .-isr_1_GetVector
 382              		.section	.text.isr_1_SetPriority,"ax",%progbits
 383              		.align	2
 384              		.global	isr_1_SetPriority
 385              		.thumb
 386              		.thumb_func
 387              		.type	isr_1_SetPriority, %function
 388              	isr_1_SetPriority:
 389              	.LFB69:
 261:Generated_Source\PSoC5/isr_1.c ****     *isr_1_INTC_PRIOR = priority << 5;
 390              		.loc 1 261 0
 391              		.cfi_startproc
 392              		@ args = 0, pretend = 0, frame = 0
 393              		@ frame_needed = 0, uses_anonymous_args = 0
 394              		@ link register save eliminated.
 395              	.LVL17:
 262:Generated_Source\PSoC5/isr_1.c **** }
 396              		.loc 1 262 0
 397 0000 4001     		lsls	r0, r0, #5
 398              	.LVL18:
 399 0002 024B     		ldr	r3, .L21
 400 0004 C0B2     		uxtb	r0, r0
 401 0006 1870     		strb	r0, [r3]
 402 0008 7047     		bx	lr
 403              	.L22:
 404 000a 00BF     		.align	2
 405              	.L21:
 406 000c 04E400E0 		.word	-536812540
 407              		.cfi_endproc
ARM GAS  C:\Users\pearlstl\AppData\Local\Temp\cckpF4LI.s 			page 15


 408              	.LFE69:
 409              		.size	isr_1_SetPriority, .-isr_1_SetPriority
 410              		.section	.text.isr_1_GetPriority,"ax",%progbits
 411              		.align	2
 412              		.global	isr_1_GetPriority
 413              		.thumb
 414              		.thumb_func
 415              		.type	isr_1_GetPriority, %function
 416              	isr_1_GetPriority:
 417              	.LFB70:
 283:Generated_Source\PSoC5/isr_1.c ****     uint8 priority;
 418              		.loc 1 283 0
 419              		.cfi_startproc
 420              		@ args = 0, pretend = 0, frame = 0
 421              		@ frame_needed = 0, uses_anonymous_args = 0
 422              		@ link register save eliminated.
 287:Generated_Source\PSoC5/isr_1.c **** 
 423              		.loc 1 287 0
 424 0000 014B     		ldr	r3, .L24
 425 0002 1878     		ldrb	r0, [r3]	@ zero_extendqisi2
 426              	.LVL19:
 290:Generated_Source\PSoC5/isr_1.c **** 
 427              		.loc 1 290 0
 428 0004 4009     		lsrs	r0, r0, #5
 429              	.LVL20:
 430 0006 7047     		bx	lr
 431              	.L25:
 432              		.align	2
 433              	.L24:
 434 0008 04E400E0 		.word	-536812540
 435              		.cfi_endproc
 436              	.LFE70:
 437              		.size	isr_1_GetPriority, .-isr_1_GetPriority
 438              		.section	.text.isr_1_Enable,"ax",%progbits
 439              		.align	2
 440              		.global	isr_1_Enable
 441              		.thumb
 442              		.thumb_func
 443              		.type	isr_1_Enable, %function
 444              	isr_1_Enable:
 445              	.LFB71:
 310:Generated_Source\PSoC5/isr_1.c ****     /* Enable the general interrupt. */
 446              		.loc 1 310 0
 447              		.cfi_startproc
 448              		@ args = 0, pretend = 0, frame = 0
 449              		@ frame_needed = 0, uses_anonymous_args = 0
 450              		@ link register save eliminated.
 312:Generated_Source\PSoC5/isr_1.c **** }
 451              		.loc 1 312 0
 452 0000 014B     		ldr	r3, .L27
 453 0002 1022     		movs	r2, #16
 454 0004 1A60     		str	r2, [r3]
 455 0006 7047     		bx	lr
 456              	.L28:
 457              		.align	2
 458              	.L27:
 459 0008 00E100E0 		.word	-536813312
ARM GAS  C:\Users\pearlstl\AppData\Local\Temp\cckpF4LI.s 			page 16


 460              		.cfi_endproc
 461              	.LFE71:
 462              		.size	isr_1_Enable, .-isr_1_Enable
 463              		.section	.text.isr_1_GetState,"ax",%progbits
 464              		.align	2
 465              		.global	isr_1_GetState
 466              		.thumb
 467              		.thumb_func
 468              		.type	isr_1_GetState, %function
 469              	isr_1_GetState:
 470              	.LFB72:
 331:Generated_Source\PSoC5/isr_1.c ****     /* Get the state of the general interrupt. */
 471              		.loc 1 331 0
 472              		.cfi_startproc
 473              		@ args = 0, pretend = 0, frame = 0
 474              		@ frame_needed = 0, uses_anonymous_args = 0
 475              		@ link register save eliminated.
 333:Generated_Source\PSoC5/isr_1.c **** }
 476              		.loc 1 333 0
 477 0000 024B     		ldr	r3, .L30
 478 0002 1868     		ldr	r0, [r3]
 334:Generated_Source\PSoC5/isr_1.c **** 
 479              		.loc 1 334 0
 480 0004 C0F30010 		ubfx	r0, r0, #4, #1
 481 0008 7047     		bx	lr
 482              	.L31:
 483 000a 00BF     		.align	2
 484              	.L30:
 485 000c 00E100E0 		.word	-536813312
 486              		.cfi_endproc
 487              	.LFE72:
 488              		.size	isr_1_GetState, .-isr_1_GetState
 489              		.section	.text.isr_1_Disable,"ax",%progbits
 490              		.align	2
 491              		.global	isr_1_Disable
 492              		.thumb
 493              		.thumb_func
 494              		.type	isr_1_Disable, %function
 495              	isr_1_Disable:
 496              	.LFB73:
 352:Generated_Source\PSoC5/isr_1.c ****     /* Disable the general interrupt. */
 497              		.loc 1 352 0
 498              		.cfi_startproc
 499              		@ args = 0, pretend = 0, frame = 0
 500              		@ frame_needed = 0, uses_anonymous_args = 0
 501              		@ link register save eliminated.
 502              		.loc 1 354 0
 503 0000 014B     		ldr	r3, .L33
 504 0002 1022     		movs	r2, #16
 505 0004 1A60     		str	r2, [r3]
 506 0006 7047     		bx	lr
 507              	.L34:
 508              		.align	2
 509              	.L33:
 510 0008 80E100E0 		.word	-536813184
 511              		.cfi_endproc
 512              	.LFE73:
ARM GAS  C:\Users\pearlstl\AppData\Local\Temp\cckpF4LI.s 			page 17


 513              		.size	isr_1_Disable, .-isr_1_Disable
 514              		.section	.text.isr_1_SetPending,"ax",%progbits
 515              		.align	2
 516              		.global	isr_1_SetPending
 517              		.thumb
 518              		.thumb_func
 519              		.type	isr_1_SetPending, %function
 520              	isr_1_SetPending:
 521              	.LFB74:
 355:Generated_Source\PSoC5/isr_1.c **** }
 356:Generated_Source\PSoC5/isr_1.c **** 
 357:Generated_Source\PSoC5/isr_1.c **** 
 358:Generated_Source\PSoC5/isr_1.c **** /*******************************************************************************
 359:Generated_Source\PSoC5/isr_1.c **** * Function Name: isr_1_SetPending
 360:Generated_Source\PSoC5/isr_1.c **** ********************************************************************************
 361:Generated_Source\PSoC5/isr_1.c **** *
 362:Generated_Source\PSoC5/isr_1.c **** * Summary:
 363:Generated_Source\PSoC5/isr_1.c **** *   Causes the Interrupt to enter the pending state, a software method of
 364:Generated_Source\PSoC5/isr_1.c **** *   generating the interrupt.
 365:Generated_Source\PSoC5/isr_1.c **** *
 366:Generated_Source\PSoC5/isr_1.c **** * Parameters:
 367:Generated_Source\PSoC5/isr_1.c **** *   None
 368:Generated_Source\PSoC5/isr_1.c **** *
 369:Generated_Source\PSoC5/isr_1.c **** * Return:
 370:Generated_Source\PSoC5/isr_1.c **** *   None
 371:Generated_Source\PSoC5/isr_1.c **** *
 372:Generated_Source\PSoC5/isr_1.c **** * Side Effects:
 373:Generated_Source\PSoC5/isr_1.c **** *   If interrupts are enabled and the interrupt is set up properly, the ISR is
 374:Generated_Source\PSoC5/isr_1.c **** *   entered (depending on the priority of this interrupt and other pending 
 375:Generated_Source\PSoC5/isr_1.c **** *   interrupts).
 376:Generated_Source\PSoC5/isr_1.c **** *
 377:Generated_Source\PSoC5/isr_1.c **** *******************************************************************************/
 378:Generated_Source\PSoC5/isr_1.c **** void isr_1_SetPending(void)
 379:Generated_Source\PSoC5/isr_1.c **** {
 522              		.loc 1 379 0
 523              		.cfi_startproc
 524              		@ args = 0, pretend = 0, frame = 0
 525              		@ frame_needed = 0, uses_anonymous_args = 0
 526              		@ link register save eliminated.
 380:Generated_Source\PSoC5/isr_1.c ****     *isr_1_INTC_SET_PD = isr_1__INTC_MASK;
 527              		.loc 1 380 0
 528 0000 014B     		ldr	r3, .L36
 529 0002 1022     		movs	r2, #16
 530 0004 1A60     		str	r2, [r3]
 531 0006 7047     		bx	lr
 532              	.L37:
 533              		.align	2
 534              	.L36:
 535 0008 00E200E0 		.word	-536813056
 536              		.cfi_endproc
 537              	.LFE74:
 538              		.size	isr_1_SetPending, .-isr_1_SetPending
 539              		.section	.text.isr_1_ClearPending,"ax",%progbits
 540              		.align	2
 541              		.global	isr_1_ClearPending
 542              		.thumb
 543              		.thumb_func
ARM GAS  C:\Users\pearlstl\AppData\Local\Temp\cckpF4LI.s 			page 18


 544              		.type	isr_1_ClearPending, %function
 545              	isr_1_ClearPending:
 546              	.LFB75:
 381:Generated_Source\PSoC5/isr_1.c **** }
 382:Generated_Source\PSoC5/isr_1.c **** 
 383:Generated_Source\PSoC5/isr_1.c **** 
 384:Generated_Source\PSoC5/isr_1.c **** /*******************************************************************************
 385:Generated_Source\PSoC5/isr_1.c **** * Function Name: isr_1_ClearPending
 386:Generated_Source\PSoC5/isr_1.c **** ********************************************************************************
 387:Generated_Source\PSoC5/isr_1.c **** *
 388:Generated_Source\PSoC5/isr_1.c **** * Summary:
 389:Generated_Source\PSoC5/isr_1.c **** *   Clears a pending interrupt in the interrupt controller.
 390:Generated_Source\PSoC5/isr_1.c **** *
 391:Generated_Source\PSoC5/isr_1.c **** *   Note Some interrupt sources are clear-on-read and require the block 
 392:Generated_Source\PSoC5/isr_1.c **** *   interrupt/status register to be read/cleared with the appropriate block API 
 393:Generated_Source\PSoC5/isr_1.c **** *   (GPIO, UART, and so on). Otherwise the ISR will continue to remain in 
 394:Generated_Source\PSoC5/isr_1.c **** *   pending state even though the interrupt itself is cleared using this API.
 395:Generated_Source\PSoC5/isr_1.c **** *
 396:Generated_Source\PSoC5/isr_1.c **** * Parameters:
 397:Generated_Source\PSoC5/isr_1.c **** *   None
 398:Generated_Source\PSoC5/isr_1.c **** *
 399:Generated_Source\PSoC5/isr_1.c **** * Return:
 400:Generated_Source\PSoC5/isr_1.c **** *   None
 401:Generated_Source\PSoC5/isr_1.c **** *
 402:Generated_Source\PSoC5/isr_1.c **** *******************************************************************************/
 403:Generated_Source\PSoC5/isr_1.c **** void isr_1_ClearPending(void)
 404:Generated_Source\PSoC5/isr_1.c **** {
 547              		.loc 1 404 0
 548              		.cfi_startproc
 549              		@ args = 0, pretend = 0, frame = 0
 550              		@ frame_needed = 0, uses_anonymous_args = 0
 551              		@ link register save eliminated.
 405:Generated_Source\PSoC5/isr_1.c ****     *isr_1_INTC_CLR_PD = isr_1__INTC_MASK;
 552              		.loc 1 405 0
 553 0000 014B     		ldr	r3, .L39
 554 0002 1022     		movs	r2, #16
 555 0004 1A60     		str	r2, [r3]
 556 0006 7047     		bx	lr
 557              	.L40:
 558              		.align	2
 559              	.L39:
 560 0008 80E200E0 		.word	-536812928
 561              		.cfi_endproc
 562              	.LFE75:
 563              		.size	isr_1_ClearPending, .-isr_1_ClearPending
 564              		.text
 565              	.Letext0:
 566              		.file 2 "c:\\program files (x86)\\cypress\\psoc creator\\4.2\\psoc creator\\import\\gnu\\arm\\5.4.
 567              		.file 3 "c:\\program files (x86)\\cypress\\psoc creator\\4.2\\psoc creator\\import\\gnu\\arm\\5.4.
 568              		.file 4 "Generated_Source\\PSoC5/cytypes.h"
 569              		.file 5 "Generated_Source\\PSoC5\\EVENT_IN.h"
 570              		.file 6 "Generated_Source\\PSoC5\\EVENT_OUT.h"
 571              		.file 7 "Generated_Source\\PSoC5/core_cm3.h"