ARM GAS  C:\Users\sinow\AppData\Local\Temp\cc6spXAd.s 			page 1


   1              		.syntax unified
   2              		.cpu cortex-m3
   3              		.fpu softvfp
   4              		.eabi_attribute 20, 1
   5              		.eabi_attribute 21, 1
   6              		.eabi_attribute 23, 3
   7              		.eabi_attribute 24, 1
   8              		.eabi_attribute 25, 1
   9              		.eabi_attribute 26, 1
  10              		.eabi_attribute 30, 2
  11              		.eabi_attribute 34, 1
  12              		.eabi_attribute 18, 4
  13              		.thumb
  14              		.syntax unified
  15              		.file	"main.c"
  16              		.text
  17              	.Ltext0:
  18              		.cfi_sections	.debug_frame
  19              		.section	.text.startup.main,"ax",%progbits
  20              		.align	2
  21              		.global	main
  22              		.thumb
  23              		.thumb_func
  24              		.type	main, %function
  25              	main:
  26              	.LFB64:
  27              		.file 1 "main.c"
   1:main.c        **** #include "project.h"
   2:main.c        **** #include <stdio.h>
   3:main.c        **** 
   4:main.c        **** //#define FLOATING_VER
   5:main.c        **** 
   6:main.c        **** #define FIXED_N         (15)
   7:main.c        **** #define FIXED_M         (32-FIXED_N-1)
   8:main.c        **** #define FIXED_ONE       (1<<FIXED_N)
   9:main.c        **** #define FIXED_ONE_HALF  (FIXED_ONE >> 1)
  10:main.c        **** 
  11:main.c        **** #define SQR(x) ((x) * (x))
  12:main.c        **** 
  13:main.c        **** // Define w0 as PI/100
  14:main.c        **** 
  15:main.c        **** // cos(w0) ~ 1.0
  16:main.c        **** // sin(w0) ~ w0, small angle approximation
  17:main.c        **** #define COS_0   (FIXED_ONE)
  18:main.c        **** #define SIN_0   ( (int) (FIXED_ONE * 3.1415926535897 / 100 + 0.5))
  19:main.c        **** 
  20:main.c        **** #define DCOS_0 (1.0)
  21:main.c        **** #define DSIN_0 (2 * 3.1415926535897 / 100)
  22:main.c        **** 
  23:main.c        **** #ifdef FLOATING_VER
  24:main.c        ****     double      dx_real = 1.0;
  25:main.c        ****     double      dx_imag = 0.0;
  26:main.c        ****     double      drsq;
  27:main.c        ****     double      disq;
  28:main.c        **** #else    
  29:main.c        ****     int32_t     x_real=FIXED_ONE;   // Initial value of x (complex number) is 1+j0, in fixed point
  30:main.c        ****     int32_t     x_imag=0;           // Initial value of x (complex number) is 1+j0, in fixed point
ARM GAS  C:\Users\sinow\AppData\Local\Temp\cc6spXAd.s 			page 2


  31:main.c        ****     
  32:main.c        ****     int32_t     rsq;                // Holds square of real component
  33:main.c        ****     int32_t     isq;                // Holds square of imag component
  34:main.c        **** #endif
  35:main.c        **** 
  36:main.c        ****     int32_t     sgn_real;           // +/-1, based on x_real > 0 or < 0
  37:main.c        ****     int32_t     sgn_imag;           // +/-1, based on x_imag > 0 or < 0
  38:main.c        **** 
  39:main.c        **** int main(void)
  40:main.c        **** {
  28              		.loc 1 40 0
  29              		.cfi_startproc
  30              		@ args = 0, pretend = 0, frame = 1024
  31              		@ frame_needed = 0, uses_anonymous_args = 0
  32 0000 2DE9F047 		push	{r4, r5, r6, r7, r8, r9, r10, lr}
  33              		.cfi_def_cfa_offset 32
  34              		.cfi_offset 4, -32
  35              		.cfi_offset 5, -28
  36              		.cfi_offset 6, -24
  37              		.cfi_offset 7, -20
  38              		.cfi_offset 8, -16
  39              		.cfi_offset 9, -12
  40              		.cfi_offset 10, -8
  41              		.cfi_offset 14, -4
  42 0004 ADF5806D 		sub	sp, sp, #1024
  43              		.cfi_def_cfa_offset 1056
  41:main.c        ****     int         i;
  42:main.c        ****     char        msg_str[1024];
  43:main.c        ****     
  44:main.c        ****     CyGlobalIntEnable; /* Enable global interrupts. */
  44              		.loc 1 44 0
  45              		.syntax unified
  46              	@ 44 "main.c" 1
  47 0008 62B6     		CPSIE   i
  48              	@ 0 "" 2
  45:main.c        ****     
  46:main.c        ****     UART_Start();
  49              		.loc 1 46 0
  50              		.thumb
  51              		.syntax unified
  52 000a FFF7FEFF 		bl	UART_Start
  53              	.LVL0:
  54 000e 2F4E     		ldr	r6, .L12
  55 0010 2F4D     		ldr	r5, .L12+4
  56 0012 DFF8C8A0 		ldr	r10, .L12+16
  57 0016 DFF8C890 		ldr	r9, .L12+20
  58 001a DFF8C880 		ldr	r8, .L12+24
  59 001e 2D4F     		ldr	r7, .L12+8
  60 0020 4FF4C874 		mov	r4, #400
  61              	.LVL1:
  62              	.L6:
  47:main.c        ****     
  48:main.c        ****     for(i = 0; i < 400; ++i)
  49:main.c        ****     {
  50:main.c        **** #ifdef FLOATING_VER
  51:main.c        ****         dx_real = dx_real*DCOS_0 - dx_imag*DSIN_0;
  52:main.c        ****         dx_imag = dx_real*DSIN_0 + dx_imag*DCOS_0;
ARM GAS  C:\Users\sinow\AppData\Local\Temp\cc6spXAd.s 			page 3


  53:main.c        **** 
  54:main.c        ****         sgn_real = dx_real >= 0 ? 1 : -1;                // signum of x_real
  55:main.c        ****         sgn_imag = dx_imag >= 0 ? 1 : -1;                // signum of x_imag
  56:main.c        **** 
  57:main.c        ****         drsq = SQR(dx_real);
  58:main.c        ****         disq = SQR(dx_imag);
  59:main.c        **** 
  60:main.c        ****         if (drsq+disq > 1.0)
  61:main.c        ****         {
  62:main.c        ****             dx_real -= 0.001 * sgn_real;
  63:main.c        ****             dx_imag -= 0.001 * sgn_imag;
  64:main.c        ****         }
  65:main.c        ****         else
  66:main.c        ****         {
  67:main.c        ****             dx_real += 0.001 * sgn_real;
  68:main.c        ****             dx_imag += 0.001 * sgn_imag;
  69:main.c        ****         }
  70:main.c        ****         
  71:main.c        ****         sprintf( msg_str, "%5d\t%5d\n\r", (int) (dx_real*1000), (int) (dx_imag*1000) );
  72:main.c        ****         UART_PutString(msg_str);
  73:main.c        **** #else
  74:main.c        ****         x_real = x_real*COS_0 - x_imag*SIN_0;//x_real << FIXED_N;                     // QM.N * QM.
  63              		.loc 1 74 0
  64 0024 3168     		ldr	r1, [r6]
  75:main.c        ****         x_real = (x_real + FIXED_ONE_HALF) >> FIXED_N;  // convert back to QM.N, with rounding
  65              		.loc 1 75 0
  66 0026 2A68     		ldr	r2, [r5]
  67 0028 C1EB8153 		rsb	r3, r1, r1, lsl #22
  68 002c C1EB0323 		rsb	r3, r1, r3, lsl #8
  69 0030 C1EB8303 		rsb	r3, r1, r3, lsl #2
  70 0034 03EBC233 		add	r3, r3, r2, lsl #15
  71 0038 03F58043 		add	r3, r3, #16384
  72 003c DB13     		asrs	r3, r3, #15
  76:main.c        ****         
  77:main.c        ****         x_imag = x_real*SIN_0 + x_imag*COS_0;                           // QM.N * QM.N -> Q2M.2N
  78:main.c        ****         x_imag = (x_imag + FIXED_ONE_HALF) >> FIXED_N;  // convert back to QM.N, with rounding
  73              		.loc 1 78 0
  74 003e 03EB0322 		add	r2, r3, r3, lsl #8
  75 0042 03EB8202 		add	r2, r3, r2, lsl #2
  76 0046 02EBC132 		add	r2, r2, r1, lsl #15
  79:main.c        ****         
  80:main.c        ****         sgn_real = x_real >= 0 ? 1 : -1;                // signum of x_real
  77              		.loc 1 80 0
  78 004a 002B     		cmp	r3, #0
  78:main.c        ****         
  79              		.loc 1 78 0
  80 004c 02F58042 		add	r2, r2, #16384
  81              		.loc 1 80 0
  82 0050 ACBF     		ite	ge
  83 0052 0120     		movge	r0, #1
  84 0054 4FF0FF30 		movlt	r0, #-1
  81:main.c        ****         sgn_imag = x_imag >= 0 ? 1 : -1;                // signum of x_imag
  85              		.loc 1 81 0
  86 0058 002A     		cmp	r2, #0
  87 005a ACBF     		ite	ge
  88 005c 4FF0010E 		movge	lr, #1
  89 0060 4FF0FF3E 		movlt	lr, #-1
ARM GAS  C:\Users\sinow\AppData\Local\Temp\cc6spXAd.s 			page 4


  90 0064 D213     		asrs	r2, r2, #15
  82:main.c        ****         
  83:main.c        ****         rsq = SQR(x_real);                              // QM.N * QM.N -> Q2M.2N
  84:main.c        ****         rsq = (rsq + FIXED_ONE_HALF) >> FIXED_N;        // convert back to QM.N, with rounding
  85:main.c        ****         
  86:main.c        ****         isq = SQR(x_imag);                            // QM.N * QM.N -> Q2M.2N
  87:main.c        ****         isq = (isq + FIXED_ONE_HALF) >> FIXED_N;        // convert back to QM.N, with rounding
  91              		.loc 1 87 0
  92 0066 02FB02F1 		mul	r1, r2, r2
  84:main.c        ****         
  93              		.loc 1 84 0
  94 006a 03FB03FC 		mul	ip, r3, r3
  95              		.loc 1 87 0
  96 006e 01F58041 		add	r1, r1, #16384
  84:main.c        ****         
  97              		.loc 1 84 0
  98 0072 0CF5804C 		add	ip, ip, #16384
  99 0076 4FEAEC3C 		asr	ip, ip, #15
 100              		.loc 1 87 0
 101 007a C913     		asrs	r1, r1, #15
 102 007c 3960     		str	r1, [r7]
  88:main.c        ****         
  89:main.c        ****         // The goal is for 'x' to represent a value on the unit circle, i.e. complex magnitue
  90:main.c        ****         // should be unity.  Because of quantization error (which will even occur with double
  91:main.c        ****         // precision, need some way of avoiding collapsing to zero, or growing to infinity
  92:main.c        ****         //
  93:main.c        ****         // My quick and dirty solution is to push both real and imaginary part down toward
  94:main.c        ****         // zero a smidgen if the magnitude is greater than one, and away from zero otherwise 
  95:main.c        ****         if (rsq+isq > FIXED_ONE)
 103              		.loc 1 95 0
 104 007e 6144     		add	r1, r1, ip
 105 0080 B1F5004F 		cmp	r1, #32768
  84:main.c        ****         
 106              		.loc 1 84 0
 107 0084 C8F800C0 		str	ip, [r8]
  96:main.c        ****         {
  97:main.c        ****             x_real -= sgn_real;
 108              		.loc 1 97 0
 109 0088 CCBF     		ite	gt
 110 008a C0EB030C 		rsbgt	ip, r0, r3
  98:main.c        ****             x_imag -= sgn_imag;
  99:main.c        ****         }
 100:main.c        ****         else
 101:main.c        ****         {
 102:main.c        ****             x_real += sgn_real;
 111              		.loc 1 102 0
 112 008e 00EB030C 		addle	ip, r0, r3
 103:main.c        ****             x_imag += sgn_imag;
 104:main.c        ****         }
 105:main.c        ****         
 106:main.c        ****         sprintf( msg_str, "%5d\t%5d\n\r", (int) (x_real/100000), (int) (x_imag/100000) );
 113              		.loc 1 106 0
 114 0092 4FF00003 		mov	r3, #0
  81:main.c        ****         
 115              		.loc 1 81 0
 116 0096 C9F800E0 		str	lr, [r9]
  80:main.c        ****         sgn_imag = x_imag >= 0 ? 1 : -1;                // signum of x_imag
ARM GAS  C:\Users\sinow\AppData\Local\Temp\cc6spXAd.s 			page 5


 117              		.loc 1 80 0
 118 009a CAF80000 		str	r0, [r10]
  98:main.c        ****         }
 119              		.loc 1 98 0
 120 009e CCBF     		ite	gt
 121 00a0 CEEB020E 		rsbgt	lr, lr, r2
 103:main.c        ****         }
 122              		.loc 1 103 0
 123 00a4 9644     		addle	lr, lr, r2
 124              		.loc 1 106 0
 125 00a6 0C49     		ldr	r1, .L12+12
 126 00a8 1A46     		mov	r2, r3
 127 00aa 6846     		mov	r0, sp
 128 00ac C6F800E0 		str	lr, [r6]
 129 00b0 C5F800C0 		str	ip, [r5]
 130 00b4 FFF7FEFF 		bl	sprintf
 131              	.LVL2:
 107:main.c        ****         UART_PutString(msg_str);
 132              		.loc 1 107 0
 133 00b8 6846     		mov	r0, sp
 134 00ba FFF7FEFF 		bl	UART_PutString
 135              	.LVL3:
  48:main.c        ****     {
 136              		.loc 1 48 0
 137 00be 013C     		subs	r4, r4, #1
 138 00c0 B0D1     		bne	.L6
 108:main.c        **** #endif        
 109:main.c        **** 
 110:main.c        ****     }
 111:main.c        **** }
 139              		.loc 1 111 0
 140 00c2 2046     		mov	r0, r4
 141 00c4 0DF5806D 		add	sp, sp, #1024
 142              		.cfi_def_cfa_offset 32
 143              		@ sp needed
 144 00c8 BDE8F087 		pop	{r4, r5, r6, r7, r8, r9, r10, pc}
 145              	.L13:
 146              		.align	2
 147              	.L12:
 148 00cc 00000000 		.word	.LANCHOR0
 149 00d0 00000000 		.word	.LANCHOR1
 150 00d4 00000000 		.word	isq
 151 00d8 00000000 		.word	.LC0
 152 00dc 00000000 		.word	sgn_real
 153 00e0 00000000 		.word	sgn_imag
 154 00e4 00000000 		.word	rsq
 155              		.cfi_endproc
 156              	.LFE64:
 157              		.size	main, .-main
 158              		.comm	sgn_imag,4,4
 159              		.comm	sgn_real,4,4
 160              		.comm	isq,4,4
 161              		.comm	rsq,4,4
 162              		.global	x_imag
 163              		.global	x_real
 164              		.data
 165              		.align	2
ARM GAS  C:\Users\sinow\AppData\Local\Temp\cc6spXAd.s 			page 6


 166              		.set	.LANCHOR1,. + 0
 167              		.type	x_real, %object
 168              		.size	x_real, 4
 169              	x_real:
 170 0000 00800000 		.word	32768
 171              		.section	.rodata.str1.4,"aMS",%progbits,1
 172              		.align	2
 173              	.LC0:
 174 0000 25356409 		.ascii	"%5d\011%5d\012\015\000"
 174      2535640A 
 174      0D00
 175              		.bss
 176              		.align	2
 177              		.set	.LANCHOR0,. + 0
 178              		.type	x_imag, %object
 179              		.size	x_imag, 4
 180              	x_imag:
 181 0000 00000000 		.space	4
 182              		.text
 183              	.Letext0:
 184              		.file 2 "c:\\program files (x86)\\cypress\\psoc creator\\4.2\\psoc creator\\import\\gnu\\arm\\5.4.
 185              		.file 3 "c:\\program files (x86)\\cypress\\psoc creator\\4.2\\psoc creator\\import\\gnu\\arm\\5.4.
 186              		.file 4 "Generated_Source\\PSoC5/core_cm3.h"
 187              		.file 5 "Generated_Source\\PSoC5/UART.h"
 188              		.file 6 "c:\\program files (x86)\\cypress\\psoc creator\\4.2\\psoc creator\\import\\gnu\\arm\\5.4.