ARM GAS  C:\Users\sinow\AppData\Local\Temp\cc5mxSNX.s 			page 1


   1              		.syntax unified
   2              		.cpu cortex-m3
   3              		.fpu softvfp
   4              		.eabi_attribute 20, 1
   5              		.eabi_attribute 21, 1
   6              		.eabi_attribute 23, 3
   7              		.eabi_attribute 24, 1
   8              		.eabi_attribute 25, 1
   9              		.eabi_attribute 26, 1
  10              		.eabi_attribute 30, 1
  11              		.eabi_attribute 34, 1
  12              		.eabi_attribute 18, 4
  13              		.thumb
  14              		.syntax unified
  15              		.file	"main.c"
  16              		.text
  17              	.Ltext0:
  18              		.cfi_sections	.debug_frame
  19              		.global	__aeabi_ldivmod
  20              		.section	.text.main,"ax",%progbits
  21              		.align	2
  22              		.global	main
  23              		.thumb
  24              		.thumb_func
  25              		.type	main, %function
  26              	main:
  27              	.LFB64:
  28              		.file 1 "main.c"
   1:main.c        **** #include "project.h"
   2:main.c        **** #include "stdio.h"
   3:main.c        **** #include "string.h"
   4:main.c        **** #include "math.h"
   5:main.c        **** 
   6:main.c        **** int main(void)
   7:main.c        **** {
  29              		.loc 1 7 0
  30              		.cfi_startproc
  31              		@ args = 0, pretend = 0, frame = 272
  32              		@ frame_needed = 0, uses_anonymous_args = 0
  33 0000 2DE9F04F 		push	{r4, r5, r6, r7, r8, r9, r10, fp, lr}
  34              		.cfi_def_cfa_offset 36
  35              		.cfi_offset 4, -36
  36              		.cfi_offset 5, -32
  37              		.cfi_offset 6, -28
  38              		.cfi_offset 7, -24
  39              		.cfi_offset 8, -20
  40              		.cfi_offset 9, -16
  41              		.cfi_offset 10, -12
  42              		.cfi_offset 11, -8
  43              		.cfi_offset 14, -4
  44 0004 C5B0     		sub	sp, sp, #276
  45              		.cfi_def_cfa_offset 312
   8:main.c        ****     CyGlobalIntEnable; 
  46              		.loc 1 8 0
  47              		.syntax unified
  48              	@ 8 "main.c" 1
  49 0006 62B6     		CPSIE   i
ARM GAS  C:\Users\sinow\AppData\Local\Temp\cc5mxSNX.s 			page 2


  50              	@ 0 "" 2
   9:main.c        ****         
  10:main.c        ****     ADC_SAR_1_Start();//initalizing ADC
  51              		.loc 1 10 0
  52              		.thumb
  53              		.syntax unified
  54 0008 FFF7FEFF 		bl	ADC_SAR_1_Start
  55              	.LVL0:
  11:main.c        ****     VDAC8_1_Start();//initalizing DAC
  56              		.loc 1 11 0
  57 000c FFF7FEFF 		bl	VDAC8_1_Start
  58              	.LVL1:
  12:main.c        ****     
  13:main.c        ****     int32_t output;
  14:main.c        ****     int32_t amplitude;
  15:main.c        ****     int32_t average;
  16:main.c        ****     int32_t sum;// running sum, zero it out each 100,000 samples
  17:main.c        ****     int32_t saved_mean = 0;// gets sum/N at the end of each batch
  18:main.c        ****     int64_t sum_of_sqs;// running sum of (f(n) -saved_mean)2
  19:main.c        ****     int32_t min;// capture min(f(n)) reset to INT_MAX each batch
  20:main.c        ****     int32_t max;// capture max(f(n)) reset to INT_MIN each batch
  21:main.c        ****     int i = 0; // counter variables
  22:main.c        ****     int64_t mean_sq;// Need 64 bits to avoid overflow
  23:main.c        ****     int NUM_SAMPS = 100000; //at 100khz
  24:main.c        ****        
  25:main.c        ****     
  26:main.c        ****     LCD_Char_1_Start();//initalizing lcd
  59              		.loc 1 26 0
  60 0010 FFF7FEFF 		bl	LCD_Char_1_Start
  61              	.LVL2:
  17:main.c        ****     int64_t sum_of_sqs;// running sum of (f(n) -saved_mean)2
  62              		.loc 1 17 0
  63 0014 4FF0000B 		mov	fp, #0
  64              	.LVL3:
  65              	.L9:
  27:main.c        ****     char lcdOutput[256];
  28:main.c        **** 
  29:main.c        ****     for(;;)
  30:main.c        ****     {
  31:main.c        ****         sum = 0; //resetting values after every main loop
  32:main.c        ****         sum_of_sqs = 0;
  33:main.c        ****         min = INT_MAX;
  34:main.c        ****         max = INT_MIN;
  35:main.c        ****               
  36:main.c        ****         
  37:main.c        ****         for(i = 0; i <= NUM_SAMPS; i++) //for a batch of 100,000 samples
  66              		.loc 1 37 0
  67 0018 0025     		movs	r5, #0
  34:main.c        ****               
  68              		.loc 1 34 0
  69 001a 4FF00046 		mov	r6, #-2147483648
  33:main.c        ****         max = INT_MIN;
  70              		.loc 1 33 0
  71 001e 6FF00047 		mvn	r7, #-2147483648
  32:main.c        ****         min = INT_MAX;
  72              		.loc 1 32 0
  73 0022 4FF00008 		mov	r8, #0
ARM GAS  C:\Users\sinow\AppData\Local\Temp\cc5mxSNX.s 			page 3


  74 0026 4FF00009 		mov	r9, #0
  31:main.c        ****         sum_of_sqs = 0;
  75              		.loc 1 31 0
  76 002a AA46     		mov	r10, r5
  77              		.loc 1 37 0
  78 002c 18E0     		b	.L2
  79              	.LVL4:
  80              	.L5:
  38:main.c        ****         {
  39:main.c        ****             ADC_SAR_1_IsEndConversion(ADC_SAR_1_WAIT_FOR_RESULT); //waits for input value at adc
  81              		.loc 1 39 0
  82 002e 0020     		movs	r0, #0
  83 0030 FFF7FEFF 		bl	ADC_SAR_1_IsEndConversion
  84              	.LVL5:
  40:main.c        ****             
  41:main.c        ****             output = ADC_SAR_1_GetResult16(); //gets adc value
  85              		.loc 1 41 0
  86 0034 FFF7FEFF 		bl	ADC_SAR_1_GetResult16
  87              	.LVL6:
  42:main.c        ****             
  43:main.c        ****             if(output > max)
  88              		.loc 1 43 0
  89 0038 8642     		cmp	r6, r0
  90 003a 00DA     		bge	.L3
  44:main.c        ****             {
  45:main.c        ****                 max = output;
  91              		.loc 1 45 0
  92 003c 0646     		mov	r6, r0
  93              	.LVL7:
  94              	.L3:
  46:main.c        ****             }
  47:main.c        ****             
  48:main.c        ****             if(output < min)
  95              		.loc 1 48 0
  96 003e 8742     		cmp	r7, r0
  97 0040 00DD     		ble	.L4
  49:main.c        ****             {
  50:main.c        ****                 min = output;
  98              		.loc 1 50 0
  99 0042 0746     		mov	r7, r0
 100              	.LVL8:
 101              	.L4:
  51:main.c        ****             }
  52:main.c        ****             
  53:main.c        ****             sum_of_sqs = sum_of_sqs+ ((output - saved_mean)*(output - saved_mean)); //(f(n) - saved
 102              		.loc 1 53 0 discriminator 2
 103 0044 CBEB0003 		rsb	r3, fp, r0
 104 0048 03FB03F3 		mul	r3, r3, r3
 105 004c 18EB0308 		adds	r8, r8, r3
 106              	.LVL9:
 107 0050 49EBE379 		adc	r9, r9, r3, asr #31
 108              	.LVL10:
  54:main.c        ****                           
  55:main.c        ****                         
  56:main.c        ****             //VDAC8_1_SetValue(output >> 4); //sets DAC output, bit shifted from 12bit to 8bit
  57:main.c        ****                                                   
  58:main.c        ****             average = (max+min)/2;
ARM GAS  C:\Users\sinow\AppData\Local\Temp\cc5mxSNX.s 			page 4


 109              		.loc 1 58 0 discriminator 2
 110 0054 BC19     		adds	r4, r7, r6
 111              	.LVL11:
 112 0056 04EBD474 		add	r4, r4, r4, lsr #31
 113 005a 6410     		asrs	r4, r4, #1
 114              	.LVL12:
  59:main.c        ****             sum += output;
 115              		.loc 1 59 0 discriminator 2
 116 005c 8244     		add	r10, r10, r0
 117              	.LVL13:
  37:main.c        ****         {
 118              		.loc 1 37 0 discriminator 2
 119 005e 0135     		adds	r5, r5, #1
 120              	.LVL14:
 121              	.L2:
  37:main.c        ****         {
 122              		.loc 1 37 0 is_stmt 0 discriminator 1
 123 0060 484B     		ldr	r3, .L13
 124 0062 9D42     		cmp	r5, r3
 125 0064 E3DD     		ble	.L5
  60:main.c        ****             
  61:main.c        ****            }
  62:main.c        ****             
  63:main.c        ****             amplitude = (max-min)/2;
 126              		.loc 1 63 0 is_stmt 1
 127 0066 F51B     		subs	r5, r6, r7
 128              	.LVL15:
 129 0068 05EBD575 		add	r5, r5, r5, lsr #31
 130 006c 6A10     		asrs	r2, r5, #1
 131 006e 0392     		str	r2, [sp, #12]
 132              	.LVL16:
  64:main.c        ****             saved_mean = sum/NUM_SAMPS;
 133              		.loc 1 64 0
 134 0070 454B     		ldr	r3, .L13+4
 135 0072 83FB0A3B 		smull	r3, fp, r3, r10
 136              	.LVL17:
 137 0076 4FEAEA7A 		asr	r10, r10, #31
 138              	.LVL18:
 139 007a CAEB6B3B 		rsb	fp, r10, fp, asr #13
 140              	.LVL19:
  65:main.c        ****             mean_sq = sum_of_sqs / NUM_SAMPS; // Normalize by number of samples
 141              		.loc 1 65 0
 142 007e 414A     		ldr	r2, .L13
 143              	.LVL20:
 144 0080 0023     		movs	r3, #0
 145 0082 4046     		mov	r0, r8
 146 0084 4946     		mov	r1, r9
 147 0086 FFF7FEFF 		bl	__aeabi_ldivmod
 148              	.LVL21:
  66:main.c        ****             mean_sq = 1000*mean_sq/(amplitude*amplitude);// Normalize amplitude,so 1.0 -> 1000
 149              		.loc 1 66 0
 150 008a 4FEA810E 		lsl	lr, r1, #2
 151 008e 8200     		lsls	r2, r0, #2
 152 0090 4EEA9073 		orr	r3, lr, r0, lsr #30
 153 0094 5D01     		lsls	r5, r3, #5
 154 0096 45EAD265 		orr	r5, r5, r2, lsr #27
 155 009a 0195     		str	r5, [sp, #4]
ARM GAS  C:\Users\sinow\AppData\Local\Temp\cc5mxSNX.s 			page 5


 156 009c 5501     		lsls	r5, r2, #5
 157 009e 0095     		str	r5, [sp]
 158 00a0 DDE90089 		ldrd	r8, [sp]
 159              	.LVL22:
 160 00a4 B8EB0208 		subs	r8, r8, r2
 161 00a8 69EB0309 		sbc	r9, r9, r3
 162 00ac 10EB0800 		adds	r0, r0, r8
 163              	.LVL23:
 164 00b0 41EB0901 		adc	r1, r1, r9
 165 00b4 CB00     		lsls	r3, r1, #3
 166 00b6 43EA5073 		orr	r3, r3, r0, lsr #29
 167 00ba C200     		lsls	r2, r0, #3
 168 00bc 1046     		mov	r0, r2
 169 00be 1946     		mov	r1, r3
 170 00c0 039A     		ldr	r2, [sp, #12]
 171 00c2 02FB02F2 		mul	r2, r2, r2
 172 00c6 D317     		asrs	r3, r2, #31
 173 00c8 FFF7FEFF 		bl	__aeabi_ldivmod
 174              	.LVL24:
 175 00cc 0546     		mov	r5, r0
 176 00ce 8846     		mov	r8, r1
 177              	.LVL25:
  67:main.c        ****         
  68:main.c        ****             
  69:main.c        ****         
  70:main.c        ****             LCD_Char_1_ClearDisplay(); //clears display
 178              		.loc 1 70 0
 179 00d0 0120     		movs	r0, #1
 180              	.LVL26:
 181 00d2 FFF7FEFF 		bl	LCD_Char_1_WriteControl
 182              	.LVL27:
  71:main.c        ****             LCD_Char_1_WriteControl(LCD_Char_1_CURSOR_HOME); //sets cursor to top left corner
 183              		.loc 1 71 0
 184 00d6 0220     		movs	r0, #2
 185 00d8 FFF7FEFF 		bl	LCD_Char_1_WriteControl
 186              	.LVL28:
  72:main.c        ****             sprintf(lcdOutput,"m=%d", (int)min);
 187              		.loc 1 72 0
 188 00dc 3A46     		mov	r2, r7
 189 00de 2B49     		ldr	r1, .L13+8
 190 00e0 04A8     		add	r0, sp, #16
 191 00e2 FFF7FEFF 		bl	sprintf
 192              	.LVL29:
  73:main.c        ****             LCD_Char_1_Position(0,0); 
 193              		.loc 1 73 0
 194 00e6 0021     		movs	r1, #0
 195 00e8 0846     		mov	r0, r1
 196 00ea FFF7FEFF 		bl	LCD_Char_1_Position
 197              	.LVL30:
  74:main.c        ****             LCD_Char_1_PrintString(lcdOutput); //prints output
 198              		.loc 1 74 0
 199 00ee 04A8     		add	r0, sp, #16
 200 00f0 FFF7FEFF 		bl	LCD_Char_1_PrintString
 201              	.LVL31:
  75:main.c        ****             LCD_Char_1_Position(0,6); //change position 
 202              		.loc 1 75 0
 203 00f4 0621     		movs	r1, #6
ARM GAS  C:\Users\sinow\AppData\Local\Temp\cc5mxSNX.s 			page 6


 204 00f6 0020     		movs	r0, #0
 205 00f8 FFF7FEFF 		bl	LCD_Char_1_Position
 206              	.LVL32:
  76:main.c        ****             
  77:main.c        ****             sprintf(lcdOutput,"M=%d", (int)max);
 207              		.loc 1 77 0
 208 00fc 3246     		mov	r2, r6
 209 00fe 2449     		ldr	r1, .L13+12
 210 0100 04A8     		add	r0, sp, #16
 211 0102 FFF7FEFF 		bl	sprintf
 212              	.LVL33:
  78:main.c        ****             LCD_Char_1_PrintString(lcdOutput); //prints output
 213              		.loc 1 78 0
 214 0106 04A8     		add	r0, sp, #16
 215 0108 FFF7FEFF 		bl	LCD_Char_1_PrintString
 216              	.LVL34:
  79:main.c        ****             LCD_Char_1_Position(1,0); //change position 
 217              		.loc 1 79 0
 218 010c 0021     		movs	r1, #0
 219 010e 0120     		movs	r0, #1
 220 0110 FFF7FEFF 		bl	LCD_Char_1_Position
 221              	.LVL35:
  80:main.c        ****             
  81:main.c        ****             sprintf(lcdOutput,"v=%d", (int)average);
 222              		.loc 1 81 0
 223 0114 2246     		mov	r2, r4
 224 0116 1F49     		ldr	r1, .L13+16
 225 0118 04A8     		add	r0, sp, #16
 226 011a FFF7FEFF 		bl	sprintf
 227              	.LVL36:
  82:main.c        ****             LCD_Char_1_PrintString(lcdOutput); //prints output
 228              		.loc 1 82 0
 229 011e 04A8     		add	r0, sp, #16
 230 0120 FFF7FEFF 		bl	LCD_Char_1_PrintString
 231              	.LVL37:
  83:main.c        ****             LCD_Char_1_Position(1,7); //change position 
 232              		.loc 1 83 0
 233 0124 0721     		movs	r1, #7
 234 0126 0120     		movs	r0, #1
 235 0128 FFF7FEFF 		bl	LCD_Char_1_Position
 236              	.LVL38:
  84:main.c        ****            
  85:main.c        ****             sprintf(lcdOutput,"q=%d", (int)mean_sq); 
 237              		.loc 1 85 0
 238 012c 2A46     		mov	r2, r5
 239 012e 1A49     		ldr	r1, .L13+20
 240 0130 04A8     		add	r0, sp, #16
 241 0132 FFF7FEFF 		bl	sprintf
 242              	.LVL39:
  86:main.c        ****             LCD_Char_1_PrintString(lcdOutput); //prints output
 243              		.loc 1 86 0
 244 0136 04A8     		add	r0, sp, #16
 245 0138 FFF7FEFF 		bl	LCD_Char_1_PrintString
 246              	.LVL40:
  87:main.c        ****             LCD_Char_1_Position(1,14); //change position
 247              		.loc 1 87 0
 248 013c 0E21     		movs	r1, #14
ARM GAS  C:\Users\sinow\AppData\Local\Temp\cc5mxSNX.s 			page 7


 249 013e 0120     		movs	r0, #1
 250 0140 FFF7FEFF 		bl	LCD_Char_1_Position
 251              	.LVL41:
  88:main.c        ****             
  89:main.c        ****                         
  90:main.c        ****             //post normalization form 1->1000
  91:main.c        ****             if(1100 >= mean_sq && mean_sq >= 900)//if square wave
 252              		.loc 1 91 0
 253 0144 B5F56170 		subs	r0, r5, #900
 254 0148 48F1FF31 		adc	r1, r8, #-1
 255 014c 0029     		cmp	r1, #0
 256 014e 08BF     		it	eq
 257 0150 C928     		cmpeq	r0, #201
 258 0152 03D2     		bcs	.L6
  92:main.c        ****             {
  93:main.c        ****                 LCD_Char_1_PrintString("Q");
 259              		.loc 1 93 0
 260 0154 1148     		ldr	r0, .L13+24
 261 0156 FFF7FEFF 		bl	LCD_Char_1_PrintString
 262              	.LVL42:
 263 015a 0EE0     		b	.L7
 264              	.L6:
  94:main.c        ****             }
  95:main.c        ****             else if(600 >= mean_sq && mean_sq >= 400)//if sine wave
 265              		.loc 1 95 0
 266 015c B5F5C872 		subs	r2, r5, #400
 267 0160 48F1FF33 		adc	r3, r8, #-1
 268 0164 002B     		cmp	r3, #0
 269 0166 08BF     		it	eq
 270 0168 C92A     		cmpeq	r2, #201
 271 016a 03D2     		bcs	.L8
  96:main.c        ****             {
  97:main.c        ****                 LCD_Char_1_PrintString("S");
 272              		.loc 1 97 0
 273 016c 0C48     		ldr	r0, .L13+28
 274 016e FFF7FEFF 		bl	LCD_Char_1_PrintString
 275              	.LVL43:
 276 0172 02E0     		b	.L7
 277              	.L8:
  98:main.c        ****             }
  99:main.c        ****             else //if triangle wave
 100:main.c        ****             {
 101:main.c        ****                 LCD_Char_1_PrintString("T");
 278              		.loc 1 101 0
 279 0174 0B48     		ldr	r0, .L13+32
 280 0176 FFF7FEFF 		bl	LCD_Char_1_PrintString
 281              	.LVL44:
 282              	.L7:
 102:main.c        ****             }
 103:main.c        ****                         
 104:main.c        ****             CyDelay(50);
 283              		.loc 1 104 0
 284 017a 3220     		movs	r0, #50
 285 017c FFF7FEFF 		bl	CyDelay
 286              	.LVL45:
 105:main.c        ****         
 106:main.c        ****     }
ARM GAS  C:\Users\sinow\AppData\Local\Temp\cc5mxSNX.s 			page 8


 287              		.loc 1 106 0
 288 0180 4AE7     		b	.L9
 289              	.L14:
 290 0182 00BF     		.align	2
 291              	.L13:
 292 0184 A0860100 		.word	100000
 293 0188 89B5F814 		.word	351843721
 294 018c 00000000 		.word	.LC0
 295 0190 08000000 		.word	.LC1
 296 0194 10000000 		.word	.LC2
 297 0198 18000000 		.word	.LC3
 298 019c 20000000 		.word	.LC4
 299 01a0 24000000 		.word	.LC5
 300 01a4 28000000 		.word	.LC6
 301              		.cfi_endproc
 302              	.LFE64:
 303              		.size	main, .-main
 304              		.section	.rodata.str1.4,"aMS",%progbits,1
 305              		.align	2
 306              	.LC0:
 307 0000 6D3D2564 		.ascii	"m=%d\000"
 307      00
 308 0005 000000   		.space	3
 309              	.LC1:
 310 0008 4D3D2564 		.ascii	"M=%d\000"
 310      00
 311 000d 000000   		.space	3
 312              	.LC2:
 313 0010 763D2564 		.ascii	"v=%d\000"
 313      00
 314 0015 000000   		.space	3
 315              	.LC3:
 316 0018 713D2564 		.ascii	"q=%d\000"
 316      00
 317 001d 000000   		.space	3
 318              	.LC4:
 319 0020 5100     		.ascii	"Q\000"
 320 0022 0000     		.space	2
 321              	.LC5:
 322 0024 5300     		.ascii	"S\000"
 323 0026 0000     		.space	2
 324              	.LC6:
 325 0028 5400     		.ascii	"T\000"
 326              		.text
 327              	.Letext0:
 328              		.file 2 "c:\\program files (x86)\\cypress\\psoc creator\\4.2\\psoc creator\\import\\gnu\\arm\\5.4.
 329              		.file 3 "c:\\program files (x86)\\cypress\\psoc creator\\4.2\\psoc creator\\import\\gnu\\arm\\5.4.
 330              		.file 4 "Generated_Source\\PSoC5/ADC_SAR_1.h"
 331              		.file 5 "Generated_Source\\PSoC5/VDAC8_1.h"
 332              		.file 6 "Generated_Source\\PSoC5/LCD_Char_1.h"
 333              		.file 7 "c:\\program files (x86)\\cypress\\psoc creator\\4.2\\psoc creator\\import\\gnu\\arm\\5.4.
 334              		.file 8 "Generated_Source\\PSoC5/CyLib.h"
 335              		.file 9 "Generated_Source\\PSoC5/core_cm3.h"